

Microchip Technology PIC18 LITE Macro Assembler V1.42 build -159332390 
                                                                                               Mon Sep 04 17:58:46 2017

Microchip Technology Omniscient Code Generator v1.42 (Free mode) build 201704130522
     1                           	processor	18F2550
     2                           	fnconf	rparam,??,?,0
     3                           	opt	pw 120
     4                           	opt	lm
     5                           	psect	smallconst,global,reloc=2,class=SMALLCONST,delta=1,noexec
     6                           	psect	cinit,global,reloc=2,class=CODE,delta=1
     7                           	psect	bssCOMRAM,global,class=COMRAM,space=1,delta=1,noexec
     8                           	psect	bssBANK0,global,class=BANK0,space=1,delta=1,lowdata,noexec
     9                           	psect	bssBANK1,global,class=BANK1,space=1,delta=1,lowdata,noexec
    10                           	psect	cstackBANK1,global,class=BANK1,space=1,delta=1,noexec
    11                           	psect	cstackBANK0,global,class=BANK0,space=1,delta=1,noexec
    12                           	psect	cstackCOMRAM,global,class=COMRAM,space=1,delta=1,noexec
    13                           	psect	text0,global,reloc=2,class=CODE,delta=1
    14                           	psect	text1,global,reloc=2,class=CODE,delta=1
    15                           	psect	text2,global,reloc=2,class=CODE,delta=1,group=1
    16                           	psect	text3,global,reloc=2,class=CODE,delta=1
    17                           	psect	text4,global,reloc=2,class=CODE,delta=1
    18                           	psect	text5,global,reloc=2,class=CODE,delta=1
    19                           	psect	text6,global,reloc=2,class=CODE,delta=1
    20                           	psect	text7,global,reloc=2,class=CODE,delta=1
    21                           	psect	text8,global,reloc=2,class=CODE,delta=1
    22                           	psect	text9,global,reloc=2,class=CODE,delta=1
    23                           	psect	text10,global,reloc=2,class=CODE,delta=1
    24                           	psect	text11,global,reloc=2,class=CODE,delta=1
    25                           	psect	text12,global,reloc=2,class=CODE,delta=1
    26                           	psect	intcodelo,global,reloc=2,class=CODE,delta=1
    27                           	psect	intcode,global,reloc=2,class=CODE,delta=1
    28                           	psect	intcode_body,global,reloc=2,class=CODE,delta=1
    29                           	psect	text15,global,reloc=2,class=CODE,delta=1
    30                           	psect	text16,global,reloc=2,class=CODE,delta=1
    31                           	psect	text17,global,reloc=2,class=CODE,delta=1
    32                           	psect	text18,global,reloc=2,class=CODE,delta=1
    33                           	psect	text19,global,reloc=2,class=CODE,delta=1
    34                           	psect	text20,global,reloc=2,class=CODE,delta=1
    35                           	psect	text21,global,reloc=2,class=CODE,delta=1
    36                           	psect	text22,global,reloc=2,class=CODE,delta=1,group=1
    37                           	psect	text23,global,reloc=2,class=CODE,delta=1
    38                           	psect	text24,global,reloc=2,class=CODE,delta=1
    39                           	psect	text25,global,reloc=2,class=CODE,delta=1
    40                           	psect	text26,global,reloc=2,class=CODE,delta=1
    41                           	psect	text27,global,reloc=2,class=CODE,delta=1
    42                           	psect	text28,global,reloc=2,class=CODE,delta=1
    43                           	psect	text29,global,reloc=2,class=CODE,delta=1
    44                           	psect	text30,global,reloc=2,class=CODE,delta=1
    45                           	psect	text31,global,reloc=2,class=CODE,delta=1
    46                           	psect	text32,global,reloc=2,class=CODE,delta=1
    47                           	psect	text33,global,reloc=2,class=CODE,delta=1
    48                           	psect	text34,global,reloc=2,class=CODE,delta=1
    49                           	psect	text35,global,reloc=2,class=CODE,delta=1
    50                           	psect	text36,global,reloc=2,class=CODE,delta=1
    51                           	psect	text37,global,reloc=2,class=CODE,delta=1
    52                           	psect	text38,global,reloc=2,class=CODE,delta=1
    53                           	psect	text39,global,reloc=2,class=CODE,delta=1
    54                           	psect	text40,global,reloc=2,class=CODE,delta=1
    55                           	psect	text41,global,reloc=2,class=CODE,delta=1
    56                           	psect	text42,global,reloc=2,class=CODE,delta=1
    57                           	psect	text43,global,reloc=2,class=CODE,delta=1
    58                           	psect	text44,global,reloc=2,class=CODE,delta=1
    59                           	psect	text45,global,reloc=2,class=CODE,delta=1,group=1
    60                           	psect	text46,global,reloc=2,class=CODE,delta=1
    61                           	psect	intsave_regs,global,class=BIGRAM,space=1,delta=1,noexec
    62                           	psect	text47,global,reloc=2,class=CODE,delta=1
    63                           	psect	rparam,global,class=COMRAM,space=1,delta=1,noexec
    64                           	psect	temp,global,ovrld,common,class=COMRAM,space=1,delta=1
    65                           	dabs	1,0x400,48,_BDT
    66                           	dabs	1,0x500,64,_cdc_data_tx
    67                           	dabs	1,0x438,8,_CtrlTrfData
    68                           	dabs	1,0x430,8,_SetupPkt
    69                           	dabs	1,0x540,64,_cdc_data_rx
    70  0000                     
    71                           ; Version 1.42
    72                           ; Generated 13/04/2017 GMT
    73                           ; 
    74                           ; Copyright © 2017, Microchip Technology Inc. and its subsidiaries ("Microchip")
    75                           ; All rights reserved.
    76                           ; 
    77                           ; This software is developed by Microchip Technology Inc. and its subsidiaries ("Microch
      +                          ip").
    78                           ; 
    79                           ; Redistribution and use in source and binary forms, with or without modification, are
    80                           ; permitted provided that the following conditions are met:
    81                           ; 
    82                           ;     1. Redistributions of source code must retain the above copyright notice, this lis
      +                          t of
    83                           ;        conditions and the following disclaimer.
    84                           ; 
    85                           ;     2. Redistributions in binary form must reproduce the above copyright notice, this 
      +                          list
    86                           ;        of conditions and the following disclaimer in the documentation and/or other
    87                           ;        materials provided with the distribution.
    88                           ; 
    89                           ;     3. Microchip's name may not be used to endorse or promote products derived from th
      +                          is
    90                           ;        software without specific prior written permission.
    91                           ; 
    92                           ; THIS SOFTWARE IS PROVIDED BY MICROCHIP "AS IS" AND ANY EXPRESS OR IMPLIED WARRANTIES,
    93                           ; INCLUDING, BUT NOT LIMITED TO, THE IMPLIED WARRANTIES OF MERCHANTABILITY AND FITNESS F
      +                          OR
    94                           ; PURPOSE ARE DISCLAIMED.  IN NO EVENT SHALL MICROCHIP BE LIABLE FOR ANY DIRECT, INDIREC
      +                          T,
    95                           ; INCIDENTAL, SPECIAL, EXEMPLARY, OR CONSEQUENTIAL DAMAGES (INCLUDING BUT NOT LIMITED TO
    96                           ; PROCUREMENT OF SUBSTITUTE GOODS OR SERVICES; LOSS OF USE, DATA OR PROFITS; OR BUSINESS
    97                           ; INTERRUPTION) HOWSOEVER CAUSED AND ON ANY THEORY OF LIABILITY, WHETHER IN CONTRACT, ST
      +                          RICT
    98                           ; LIABILITY, OR TORT (INCLUDING NEGLIGENCE OR OTHERWISE) ARISING IN ANY WAY OUT OF THE U
      +                          SE OF
    99                           ; THIS SOFTWARE, EVEN IF ADVISED OF THE POSSIBILITY OF SUCH DAMAGE.
   100                           ; 
   101                           ; 
   102                           ; Code-generator required, PIC18F2550 Definitions
   103                           ; 
   104                           ; SFR Addresses
   105  0000                     
   106                           	psect	smallconst
   107  000800                     __psmallconst:
   108                           	opt stack 0
   109  000800  00                 	db	0
   110  000801                     _USB_SD_Ptr:
   111                           	opt stack 0
   112  000801  C6                 	db	low _sd000
   113  000802  08                 	db	high _sd000
   114  000803  80                 	db	low _sd001
   115  000804  08                 	db	high _sd001
   116  000805  4C                 	db	low _sd002
   117  000806  08                 	db	high _sd002
   118  000807                     __end_of_USB_SD_Ptr:
   119                           	opt stack 0
   120  000807                     _USB_CD_Ptr:
   121                           	opt stack 0
   122  000807  09                 	db	low _configDescriptor1
   123  000808  08                 	db	high _configDescriptor1
   124  000809                     __end_of_USB_CD_Ptr:
   125                           	opt stack 0
   126  000809                     _configDescriptor1:
   127                           	opt stack 0
   128  000809  09                 	db	9
   129  00080A  02                 	db	2
   130  00080B  43                 	db	67
   131  00080C  00                 	db	0
   132  00080D  02                 	db	2
   133  00080E  01                 	db	1
   134  00080F  00                 	db	0
   135  000810  C0                 	db	192
   136  000811  32                 	db	50
   137  000812  09                 	db	9
   138  000813  04                 	db	4
   139  000814  00                 	db	0
   140  000815  00                 	db	0
   141  000816  01                 	db	1
   142  000817  02                 	db	2
   143  000818  02                 	db	2
   144  000819  01                 	db	1
   145  00081A  00                 	db	0
   146  00081B  05                 	db	5
   147  00081C  24                 	db	36
   148  00081D  00                 	db	0
   149  00081E  10                 	db	16
   150  00081F  01                 	db	1
   151  000820  04                 	db	4
   152  000821  24                 	db	36
   153  000822  02                 	db	2
   154  000823  02                 	db	2
   155  000824  05                 	db	5
   156  000825  24                 	db	36
   157  000826  06                 	db	6
   158  000827  00                 	db	0
   159  000828  01                 	db	1
   160  000829  05                 	db	5
   161  00082A  24                 	db	36
   162  00082B  01                 	db	1
   163  00082C  00                 	db	0
   164  00082D  01                 	db	1
   165  00082E  07                 	db	7
   166  00082F  05                 	db	5
   167  000830  81                 	db	129
   168  000831  03                 	db	3
   169  000832  08                 	db	8
   170  000833  00                 	db	0
   171  000834  02                 	db	2
   172  000835  09                 	db	9
   173  000836  04                 	db	4
   174  000837  01                 	db	1
   175  000838  00                 	db	0
   176  000839  02                 	db	2
   177  00083A  0A                 	db	10
   178  00083B  00                 	db	0
   179  00083C  00                 	db	0
   180  00083D  00                 	db	0
   181  00083E  07                 	db	7
   182  00083F  05                 	db	5
   183  000840  02                 	db	2
   184  000841  02                 	db	2
   185  000842  40                 	db	64
   186  000843  00                 	db	0
   187  000844  00                 	db	0
   188  000845  07                 	db	7
   189  000846  05                 	db	5
   190  000847  82                 	db	130
   191  000848  02                 	db	2
   192  000849  40                 	db	64
   193  00084A  00                 	db	0
   194  00084B  00                 	db	0
   195  00084C                     __end_of_configDescriptor1:
   196                           	opt stack 0
   197  00084C                     _sd002:
   198                           	opt stack 0
   199  00084C  34                 	db	52
   200  00084D  03                 	db	3
   201  00084E  0043               	dw	67
   202  000850  0044               	dw	68
   203  000852  0043               	dw	67
   204  000854  0020               	dw	32
   205  000856  0052               	dw	82
   206  000858  0053               	dw	83
   207  00085A  002D               	dw	45
   208  00085C  0032               	dw	50
   209  00085E  0033               	dw	51
   210  000860  0032               	dw	50
   211  000862  0020               	dw	32
   212  000864  0045               	dw	69
   213  000866  006D               	dw	109
   214  000868  0075               	dw	117
   215  00086A  006C               	dw	108
   216  00086C  0061               	dw	97
   217  00086E  0074               	dw	116
   218  000870  0069               	dw	105
   219  000872  006F               	dw	111
   220  000874  006E               	dw	110
   221  000876  0020               	dw	32
   222  000878  0044               	dw	68
   223  00087A  0065               	dw	101
   224  00087C  006D               	dw	109
   225  00087E  006F               	dw	111
   226  000880                     __end_of_sd002:
   227                           	opt stack 0
   228  000880                     _sd001:
   229                           	opt stack 0
   230  000880  34                 	db	52
   231  000881  03                 	db	3
   232  000882  004D               	dw	77
   233  000884  0069               	dw	105
   234  000886  0063               	dw	99
   235  000888  0072               	dw	114
   236  00088A  006F               	dw	111
   237  00088C  0063               	dw	99
   238  00088E  0068               	dw	104
   239  000890  0069               	dw	105
   240  000892  0070               	dw	112
   241  000894  0020               	dw	32
   242  000896  0054               	dw	84
   243  000898  0065               	dw	101
   244  00089A  0063               	dw	99
   245  00089C  0068               	dw	104
   246  00089E  006E               	dw	110
   247  0008A0  006F               	dw	111
   248  0008A2  006C               	dw	108
   249  0008A4  006F               	dw	111
   250  0008A6  0067               	dw	103
   251  0008A8  0079               	dw	121
   252  0008AA  0020               	dw	32
   253  0008AC  0049               	dw	73
   254  0008AE  006E               	dw	110
   255  0008B0  0063               	dw	99
   256  0008B2  002E               	dw	46
   257  0008B4                     __end_of_sd001:
   258                           	opt stack 0
   259  0008B4                     _device_dsc:
   260                           	opt stack 0
   261  0008B4  12                 	db	18
   262  0008B5  01                 	db	1
   263  0008B6  0200               	dw	512
   264  0008B8  02                 	db	2
   265  0008B9  00                 	db	0
   266  0008BA  00                 	db	0
   267  0008BB  08                 	db	8
   268  0008BC  04D8               	dw	1240
   269  0008BE  000A               	dw	10
   270  0008C0  0100               	dw	256
   271  0008C2  01                 	db	1
   272  0008C3  02                 	db	2
   273  0008C4  00                 	db	0
   274  0008C5  01                 	db	1
   275  0008C6                     __end_of_device_dsc:
   276                           	opt stack 0
   277  0008C6                     _sd000:
   278                           	opt stack 0
   279  0008C6  04                 	db	4
   280  0008C7  03                 	db	3
   281  0008C8  0409               	dw	1033
   282  0008CA                     __end_of_sd000:
   283                           	opt stack 0
   284  0000                     _SPBRGH	set	4016
   285  0000                     _SPBRG	set	4015
   286  0000                     _TXREG	set	4013
   287  0000                     _RCREG	set	4014
   288  0000                     _TRISCbits	set	3988
   289  0000                     _RCSTAbits	set	4011
   290  0000                     _PIR1bits	set	3998
   291  0000                     _TXSTAbits	set	4012
   292  0000                     _UEP0bits	set	3952
   293  0000                     _INTCONbits	set	4082
   294  0000                     _IPR2bits	set	4002
   295  0000                     _RCONbits	set	4048
   296  0000                     _UCON	set	3949
   297  0000                     _USTAT	set	3948
   298  0000                     _PIR2bits	set	4001
   299  0000                     _UIEbits	set	3945
   300  0000                     _UIRbits	set	3944
   301  0000                     _UADDR	set	3950
   302  0000                     _UIE	set	3945
   303  0000                     _UEIE	set	3947
   304  0000                     _UCFG	set	3951
   305  0000                     _UIR	set	3944
   306  0000                     _UEIR	set	3946
   307  0000                     _PIE2bits	set	4000
   308  0000                     _UCONbits	set	3949
   309  0000                     _ADCON1	set	4033
   310  0000                     _LATC	set	3979
   311  0000                     _LATB	set	3978
   312  0000                     _LATA	set	3977
   313  0000                     _TRISC	set	3988
   314  0000                     _TRISB	set	3987
   315  0000                     _TRISA	set	3986
   316  0000                     _OSCCONbits	set	4051
   317  0000                     _UEP1	set	3953
   318  0000                     _UEP0	set	3952
   319                           
   320                           ; #config settings
   321  0008CA  00                 	db	0	; dummy byte at the end
   322  0000                     
   323                           	psect	cinit
   324  00240C                     __pcinit:
   325                           	opt stack 0
   326  00240C                     start_initialization:
   327                           	opt stack 0
   328  00240C                     __initialization:
   329                           	opt stack 0
   330                           
   331                           ; Clear objects allocated to BANK1 (64 bytes)
   332  00240C  EE01  F000         	lfsr	0,__pbssBANK1
   333  002410  0E40               	movlw	64
   334  002412                     clear_0:
   335  002412  6AEE               	clrf	postinc0,c
   336  002414  06E8               	decf	wreg,f,c
   337  002416  E1FD               	bnz	clear_0
   338                           
   339                           ; Clear objects allocated to BANK0 (130 bytes)
   340  002418  EE00  F060         	lfsr	0,__pbssBANK0
   341  00241C  0E82               	movlw	130
   342  00241E                     clear_1:
   343  00241E  6AEE               	clrf	postinc0,c
   344  002420  06E8               	decf	wreg,f,c
   345  002422  E1FD               	bnz	clear_1
   346                           
   347                           ; Clear objects allocated to COMRAM (44 bytes)
   348  002424  EE00  F001         	lfsr	0,__pbssCOMRAM
   349  002428  0E2C               	movlw	44
   350  00242A                     clear_2:
   351  00242A  6AEE               	clrf	postinc0,c
   352  00242C  06E8               	decf	wreg,f,c
   353  00242E  E1FD               	bnz	clear_2
   354  002430                     end_of_initialization:
   355                           	opt stack 0
   356  002430                     __end_of__initialization:
   357                           	opt stack 0
   358  002430  9058               	bcf	int$flags,0,c	;clear compiler interrupt flag (level 1)
   359  002432  9258               	bcf	int$flags,1,c	;clear compiler interrupt flag (level 2)
   360  002434  0E00               	movlw	low (__Lmediumconst shr (0+16))
   361  002436  6EF8               	movwf	tblptru,c
   362  002438  0100               	movlb	0
   363  00243A  EFB2  F012         	goto	_main	;jump to C main() function
   364                           tblptru	equ	0xFF8
   365                           postinc0	equ	0xFEE
   366                           wreg	equ	0xFE8
   367                           
   368                           	psect	bssCOMRAM
   369  000001                     __pbssCOMRAM:
   370                           	opt stack 0
   371  000001                     _USB1msTickCount:
   372                           	opt stack 0
   373  000001                     	ds	4
   374  000005                     _pCDCDst:
   375                           	opt stack 0
   376  000005                     	ds	3
   377  000008                     _pCDCSrc:
   378                           	opt stack 0
   379  000008                     	ds	3
   380  00000B                     _CDCDataInHandle:
   381                           	opt stack 0
   382  00000B                     	ds	2
   383  00000D                     _pDst:
   384                           	opt stack 0
   385  00000D                     	ds	2
   386  00000F                     _pBDTEntryEP0OutNext:
   387                           	opt stack 0
   388  00000F                     	ds	2
   389  000011                     _pBDTEntryEP0OutCurrent:
   390                           	opt stack 0
   391  000011                     	ds	2
   392  000013                     _RS232_Out_Data_Rdy:
   393                           	opt stack 0
   394  000013                     	ds	1
   395  000014                     _RS232cp:
   396                           	opt stack 0
   397  000014                     	ds	1
   398  000015                     _LastRS232Out:
   399                           	opt stack 0
   400  000015                     	ds	1
   401  000016                     _NextUSBOut:
   402                           	opt stack 0
   403  000016                     	ds	1
   404  000017                     _control_signal_bitmap:
   405                           	opt stack 0
   406  000017                     	ds	1
   407  000018                     _cdc_mem_type:
   408                           	opt stack 0
   409  000018                     	ds	1
   410  000019                     _cdc_tx_len:
   411                           	opt stack 0
   412  000019                     	ds	1
   413  00001A                     _cdc_trf_state:
   414                           	opt stack 0
   415  00001A                     	ds	1
   416  00001B                     _USBTicksSinceSuspendEnd:
   417                           	opt stack 0
   418  00001B                     	ds	1
   419  00001C                     _USBDeferOUTDataStagePackets:
   420                           	opt stack 0
   421  00001C                     	ds	1
   422  00001D                     _USBDeferINDataStagePackets:
   423                           	opt stack 0
   424  00001D                     	ds	1
   425  00001E                     _USBStatusStageEnabledFlag2:
   426                           	opt stack 0
   427  00001E                     	ds	1
   428  00001F                     _USBStatusStageEnabledFlag1:
   429                           	opt stack 0
   430  00001F                     	ds	1
   431  000020                     _USBDeferStatusStagePacket:
   432                           	opt stack 0
   433  000020                     	ds	1
   434  000021                     _USBStatusStageTimeoutCounter:
   435                           	opt stack 0
   436  000021                     	ds	1
   437  000022                     _BothEP0OutUOWNsSet:
   438                           	opt stack 0
   439  000022                     	ds	1
   440  000023                     _endpoint_number:
   441                           	opt stack 0
   442  000023                     	ds	1
   443  000024                     _USBBusIsSuspended:
   444                           	opt stack 0
   445  000024                     	ds	1
   446  000025                     _RemoteWakeup:
   447                           	opt stack 0
   448  000025                     	ds	1
   449  000026                     _controlTransferState:
   450                           	opt stack 0
   451  000026                     	ds	1
   452  000027                     _shortPacketStatus:
   453                           	opt stack 0
   454  000027                     	ds	1
   455  000028                     _USBDeviceState:
   456                           	opt stack 0
   457  000028                     	ds	1
   458  000029                     _USBAlternateInterface:
   459                           	opt stack 0
   460  000029                     	ds	2
   461  00002B                     _USTATcopy:
   462                           	opt stack 0
   463  00002B                     	ds	1
   464  00002C                     _USBActiveConfiguration:
   465                           	opt stack 0
   466  00002C                     	ds	1
   467                           tblptru	equ	0xFF8
   468                           postinc0	equ	0xFEE
   469                           wreg	equ	0xFE8
   470                           
   471                           	psect	bssBANK0
   472  000060                     __pbssBANK0:
   473                           	opt stack 0
   474  000060                     _outPipes:
   475                           	opt stack 0
   476  000060                     	ds	8
   477  000068                     _inPipes:
   478                           	opt stack 0
   479  000068                     	ds	6
   480  00006E                     _pBDTEntryIn:
   481                           	opt stack 0
   482  00006E                     	ds	6
   483  000074                     _pBDTEntryOut:
   484                           	opt stack 0
   485  000074                     	ds	6
   486  00007A                     _BaudRateGen:
   487                           	opt stack 0
   488  00007A                     	ds	4
   489  00007E                     _ep_data_out:
   490                           	opt stack 0
   491  00007E                     	ds	3
   492  000081                     _ep_data_in:
   493                           	opt stack 0
   494  000081                     	ds	3
   495  000084                     _lastTransmission:
   496                           	opt stack 0
   497  000084                     	ds	2
   498  000086                     _CDCDataOutHandle:
   499                           	opt stack 0
   500  000086                     	ds	2
   501  000088                     _cdc_rx_len:
   502                           	opt stack 0
   503  000088                     	ds	1
   504  000089                     _USB_Out_Buffer:
   505                           	opt stack 0
   506  000089                     	ds	64
   507  0000C9                     _cdc_notice:
   508                           	opt stack 0
   509  0000C9                     	ds	10
   510  0000D3                     _dummy_encapsulated_cmd_response:
   511                           	opt stack 0
   512  0000D3                     	ds	8
   513  0000DB                     _line_coding:
   514                           	opt stack 0
   515  0000DB                     	ds	7
   516                           tblptru	equ	0xFF8
   517                           postinc0	equ	0xFEE
   518                           wreg	equ	0xFE8
   519                           
   520                           	psect	bssBANK1
   521  000100                     __pbssBANK1:
   522                           	opt stack 0
   523  000100                     _RS232_Out_Data:
   524                           	opt stack 0
   525  000100                     	ds	64
   526                           tblptru	equ	0xFF8
   527                           postinc0	equ	0xFEE
   528                           wreg	equ	0xFE8
   529                           
   530                           	psect	cstackBANK1
   531  000140                     __pcstackBANK1:
   532                           	opt stack 0
   533  000140                     ?_USBTransferOnePacket:
   534                           	opt stack 0
   535  000140                     SYSTEM_Initialize@state:
   536                           	opt stack 0
   537  000140                     USBTransferOnePacket@dir:
   538                           	opt stack 0
   539  000140                     USART_putcUSART@c:
   540                           	opt stack 0
   541  000140                     USART_getcUSART@c:
   542                           	opt stack 0
   543  000140                     putUSBUSART@data:
   544                           	opt stack 0
   545  000140                     memset@p1:
   546                           	opt stack 0
   547                           
   548                           ; 2 bytes @ 0x0
   549  000140                     	ds	1
   550  000141                     USBTransferOnePacket@data:
   551                           	opt stack 0
   552                           
   553                           ; 2 bytes @ 0x1
   554  000141                     	ds	1
   555  000142                     putUSBUSART@length:
   556                           	opt stack 0
   557  000142                     memset@c:
   558                           	opt stack 0
   559                           
   560                           ; 2 bytes @ 0x2
   561  000142                     	ds	1
   562  000143                     USBTransferOnePacket@len:
   563                           	opt stack 0
   564                           
   565                           ; 1 bytes @ 0x3
   566  000143                     	ds	1
   567  000144                     ??_USBTransferOnePacket:
   568  000144                     memset@n:
   569                           	opt stack 0
   570                           
   571                           ; 2 bytes @ 0x4
   572  000144                     	ds	2
   573  000146                     memset@p:
   574                           	opt stack 0
   575                           
   576                           ; 2 bytes @ 0x6
   577  000146                     	ds	2
   578  000148                     USBDeviceInit@i:
   579                           	opt stack 0
   580  000148                     USBTransferOnePacket@ep:
   581                           	opt stack 0
   582                           
   583                           ; 1 bytes @ 0x8
   584  000148                     	ds	1
   585  000149                     USBTransferOnePacket@handle:
   586                           	opt stack 0
   587                           
   588                           ; 2 bytes @ 0x9
   589  000149                     	ds	2
   590  00014B                     CDCTxService@i:
   591                           	opt stack 0
   592  00014B                     getsUSBUSART@buffer:
   593                           	opt stack 0
   594                           
   595                           ; 2 bytes @ 0xB
   596  00014B                     	ds	1
   597  00014C                     CDCTxService@byte_to_send:
   598                           	opt stack 0
   599                           
   600                           ; 1 bytes @ 0xC
   601  00014C                     	ds	1
   602  00014D                     getsUSBUSART@len:
   603                           	opt stack 0
   604                           
   605                           ; 1 bytes @ 0xD
   606  00014D                     	ds	1
   607  00014E                     
   608                           ; 1 bytes @ 0xE
   609  00014E                     	ds	1
   610  00014F                     tblptru	equ	0xFF8
   611                           postinc0	equ	0xFEE
   612                           wreg	equ	0xFE8
   613                           
   614                           ; 1 bytes @ 0xF
   615                           
   616                           	psect	cstackBANK0
   617  0000E2                     __pcstackBANK0:
   618                           	opt stack 0
   619  0000E2                     ??_SYS_InterruptLow:
   620                           
   621                           ; 1 bytes @ 0x0
   622  0000E2                     	ds	17
   623                           tblptru	equ	0xFF8
   624                           postinc0	equ	0xFEE
   625                           wreg	equ	0xFE8
   626                           
   627                           	psect	cstackCOMRAM
   628  00002D                     __pcstackCOMRAM:
   629                           	opt stack 0
   630  00002D                     ??_USBStdGetDscHandler:
   631  00002D                     ??_USBStdGetStatusHandler:
   632  00002D                     ?i2_USBTransferOnePacket:
   633                           	opt stack 0
   634  00002D                     ?___lldiv:
   635                           	opt stack 0
   636  00002D                     USBConfigureEndpoint@direction:
   637                           	opt stack 0
   638  00002D                     USBCtrlTrfTxService@byteToSend:
   639                           	opt stack 0
   640  00002D                     USART_Initialize@c:
   641                           	opt stack 0
   642  00002D                     i2USBTransferOnePacket@dir:
   643                           	opt stack 0
   644  00002D                     memcpy@d1:
   645                           	opt stack 0
   646  00002D                     i2memset@p1:
   647                           	opt stack 0
   648  00002D                     ___lldiv@dividend:
   649                           	opt stack 0
   650                           
   651                           ; 4 bytes @ 0x0
   652  00002D                     	ds	1
   653  00002E                     ??_USBConfigureEndpoint:
   654  00002E                     USBStdGetStatusHandler@p:
   655                           	opt stack 0
   656  00002E                     i2USBTransferOnePacket@data:
   657                           	opt stack 0
   658                           
   659                           ; 2 bytes @ 0x1
   660  00002E                     	ds	1
   661  00002F                     memcpy@s1:
   662                           	opt stack 0
   663  00002F                     i2memset@c:
   664                           	opt stack 0
   665                           
   666                           ; 2 bytes @ 0x2
   667  00002F                     	ds	1
   668  000030                     i2USBTransferOnePacket@len:
   669                           	opt stack 0
   670                           
   671                           ; 1 bytes @ 0x3
   672  000030                     	ds	1
   673  000031                     ??i2_USBTransferOnePacket:
   674  000031                     memcpy@n:
   675                           	opt stack 0
   676  000031                     i2memset@n:
   677                           	opt stack 0
   678  000031                     ___lldiv@divisor:
   679                           	opt stack 0
   680                           
   681                           ; 4 bytes @ 0x4
   682  000031                     	ds	1
   683  000032                     USBConfigureEndpoint@EPNum:
   684                           	opt stack 0
   685                           
   686                           ; 1 bytes @ 0x5
   687  000032                     	ds	1
   688  000033                     USBConfigureEndpoint@handle:
   689                           	opt stack 0
   690  000033                     memcpy@d:
   691                           	opt stack 0
   692  000033                     i2memset@p:
   693                           	opt stack 0
   694                           
   695                           ; 2 bytes @ 0x6
   696  000033                     	ds	2
   697  000035                     USBEnableEndpoint@options:
   698                           	opt stack 0
   699  000035                     i2USBDeviceInit@i:
   700                           	opt stack 0
   701  000035                     i2USBTransferOnePacket@ep:
   702                           	opt stack 0
   703  000035                     memcpy@s:
   704                           	opt stack 0
   705  000035                     ___lldiv@quotient:
   706                           	opt stack 0
   707                           
   708                           ; 4 bytes @ 0x8
   709  000035                     	ds	1
   710  000036                     USBEnableEndpoint@p:
   711                           	opt stack 0
   712  000036                     i2USBTransferOnePacket@handle:
   713                           	opt stack 0
   714                           
   715                           ; 2 bytes @ 0x9
   716  000036                     	ds	1
   717  000037                     memcpy@tmp:
   718                           	opt stack 0
   719                           
   720                           ; 1 bytes @ 0xA
   721  000037                     	ds	1
   722  000038                     USBEnableEndpoint@ep:
   723                           	opt stack 0
   724                           
   725                           ; 1 bytes @ 0xB
   726  000038                     	ds	1
   727  000039                     APP_DeviceCDCEmulatorInitialize@i:
   728                           	opt stack 0
   729  000039                     ___lldiv@counter:
   730                           	opt stack 0
   731                           
   732                           ; 1 bytes @ 0xC
   733  000039                     	ds	1
   734  00003A                     USER_USB_CALLBACK_EVENT_HANDLER@event:
   735                           	opt stack 0
   736  00003A                     USART_mySetLineCodingHandler@dwBaud:
   737                           	opt stack 0
   738                           
   739                           ; 4 bytes @ 0xD
   740  00003A                     	ds	2
   741  00003C                     USER_USB_CALLBACK_EVENT_HANDLER@pdata:
   742                           	opt stack 0
   743                           
   744                           ; 2 bytes @ 0xF
   745  00003C                     	ds	2
   746  00003E                     USBCtrlTrfRxService@i:
   747                           	opt stack 0
   748  00003E                     USBCtrlTrfInHandler@lastDTS:
   749                           	opt stack 0
   750  00003E                     USER_USB_CALLBACK_EVENT_HANDLER@size:
   751                           	opt stack 0
   752                           
   753                           ; 2 bytes @ 0x11
   754  00003E                     	ds	1
   755  00003F                     USBCtrlTrfRxService@byteToRead:
   756                           	opt stack 0
   757                           
   758                           ; 1 bytes @ 0x12
   759  00003F                     	ds	1
   760  000040                     ??_USER_USB_CALLBACK_EVENT_HANDLER:
   761                           
   762                           ; 1 bytes @ 0x13
   763  000040                     	ds	2
   764  000042                     ??_USBStdFeatureReqHandler:
   765  000042                     USBStdSetCfgHandler@i:
   766                           	opt stack 0
   767                           
   768                           ; 1 bytes @ 0x15
   769  000042                     	ds	1
   770  000043                     USBStdFeatureReqHandler@pUEP:
   771                           	opt stack 0
   772                           
   773                           ; 2 bytes @ 0x16
   774  000043                     	ds	2
   775  000045                     USBStdFeatureReqHandler@current_ep_data:
   776                           	opt stack 0
   777                           
   778                           ; 1 bytes @ 0x18
   779  000045                     	ds	1
   780  000046                     USBStdFeatureReqHandler@p:
   781                           	opt stack 0
   782                           
   783                           ; 2 bytes @ 0x19
   784  000046                     	ds	2
   785  000048                     ??_USBCtrlEPService:
   786  000048                     
   787                           ; 1 bytes @ 0x1B
   788  000048                     	ds	1
   789  000049                     USBDeviceTasks@i:
   790                           	opt stack 0
   791                           
   792                           ; 1 bytes @ 0x1C
   793  000049                     	ds	1
   794  00004A                     ??_SYS_InterruptHigh:
   795                           
   796                           ; 1 bytes @ 0x1D
   797  00004A                     	ds	14
   798                           tblptru	equ	0xFF8
   799                           postinc0	equ	0xFEE
   800                           wreg	equ	0xFE8
   801                           
   802 ;;
   803 ;;Main: autosize = 0, tempsize = 0, incstack = 0, save=0
   804 ;;
   805 ;; *************** function _main *****************
   806 ;; Defined at:
   807 ;;		line 4 in file "main.c"
   808 ;; Parameters:    Size  Location     Type
   809 ;;		None
   810 ;; Auto vars:     Size  Location     Type
   811 ;;		None
   812 ;; Return value:  Size  Location     Type
   813 ;;                  1    wreg      void 
   814 ;; Registers used:
   815 ;;		wreg, fsr1l, fsr1h, fsr2l, fsr2h, status,2, status,0, prodl, prodh, cstack
   816 ;; Tracked objects:
   817 ;;		On entry : 0/0
   818 ;;		On exit  : 0/0
   819 ;;		Unchanged: 0/0
   820 ;; Data sizes:     COMRAM   BANK0   BANK1   BANK2   BANK3   BANK4   BANK5   BANK6   BANK7
   821 ;;      Params:         0       0       0       0       0       0       0       0       0
   822 ;;      Locals:         0       0       0       0       0       0       0       0       0
   823 ;;      Temps:          0       0       0       0       0       0       0       0       0
   824 ;;      Totals:         0       0       0       0       0       0       0       0       0
   825 ;;Total ram usage:        0 bytes
   826 ;; Hardware stack levels required when called:   16
   827 ;; This function calls:
   828 ;;		_CDC_Routine
   829 ;;		_SYSTEM_Initialize
   830 ;;		_USBDeviceAttach
   831 ;;		_USBDeviceInit
   832 ;; This function is called by:
   833 ;;		Startup code after reset
   834 ;; This function uses a non-reentrant model
   835 ;;
   836                           
   837                           	psect	text0
   838  002564                     __ptext0:
   839                           	opt stack 0
   840  002564                     _main:
   841                           	opt stack 15
   842                           
   843                           ;main.c: 5: SYSTEM_Initialize(SYSTEM_STATE_USB_START);
   844                           
   845                           ;incstack = 0
   846  002564  0E00               	movlw	0
   847  002566  ECAE  F011         	call	_SYSTEM_Initialize
   848                           
   849                           ;main.c: 7: USBDeviceInit();
   850  00256A  ECB6  F005         	call	_USBDeviceInit	;wreg free
   851                           
   852                           ;main.c: 8: USBDeviceAttach();
   853  00256E  EC38  F012         	call	_USBDeviceAttach	;wreg free
   854  002572                     l4404:
   855                           
   856                           ;main.c: 11: CDC_Routine();
   857  002572  ECBC  F012         	call	_CDC_Routine	;wreg free
   858  002576  D7FD               	goto	l4404
   859  002578                     __end_of_main:
   860                           	opt stack 0
   861                           tblptru	equ	0xFF8
   862                           postinc0	equ	0xFEE
   863                           wreg	equ	0xFE8
   864                           
   865 ;; *************** function _USBDeviceInit *****************
   866 ;; Defined at:
   867 ;;		line 277 in file "../mla/v2017_03_06/framework/usb/src/usb_device.c"
   868 ;; Parameters:    Size  Location     Type
   869 ;;		None
   870 ;; Auto vars:     Size  Location     Type
   871 ;;  i               1    8[BANK1 ] unsigned char 
   872 ;; Return value:  Size  Location     Type
   873 ;;                  1    wreg      void 
   874 ;; Registers used:
   875 ;;		wreg, fsr2l, fsr2h, status,2, status,0, prodl, prodh, cstack
   876 ;; Tracked objects:
   877 ;;		On entry : 0/0
   878 ;;		On exit  : 0/0
   879 ;;		Unchanged: 0/0
   880 ;; Data sizes:     COMRAM   BANK0   BANK1   BANK2   BANK3   BANK4   BANK5   BANK6   BANK7
   881 ;;      Params:         0       0       0       0       0       0       0       0       0
   882 ;;      Locals:         0       0       1       0       0       0       0       0       0
   883 ;;      Temps:          0       0       0       0       0       0       0       0       0
   884 ;;      Totals:         0       0       1       0       0       0       0       0       0
   885 ;;Total ram usage:        1 bytes
   886 ;; Hardware stack levels used:    1
   887 ;; Hardware stack levels required when called:   13
   888 ;; This function calls:
   889 ;;		_memset
   890 ;; This function is called by:
   891 ;;		_main
   892 ;; This function uses a non-reentrant model
   893 ;;
   894                           
   895                           	psect	text1
   896  000B6C                     __ptext1:
   897                           	opt stack 0
   898  000B6C                     _USBDeviceInit:
   899                           	opt stack 17
   900                           
   901                           ;usb_device.c: 279: uint8_t i;
   902                           ;usb_device.c: 281: {PIE2bits.USBIE = 0;};
   903                           
   904                           ;incstack = 0
   905  000B6C  9AA0               	bcf	4000,5,c	;volatile
   906                           
   907                           ;usb_device.c: 285: ;
   908                           ;usb_device.c: 288: {UEIR = 0;};
   909  000B6E  0E00               	movlw	0
   910  000B70  6E6A               	movwf	3946,c	;volatile
   911                           
   912                           ;usb_device.c: 291: {UIR = 0;};
   913  000B72  0E00               	movlw	0
   914  000B74  6E68               	movwf	3944,c	;volatile
   915                           
   916                           ;usb_device.c: 294: UEP0 = 0;
   917  000B76  0E00               	movlw	0
   918  000B78  6E70               	movwf	3952,c	;volatile
   919                           
   920                           ;usb_device.c: 296: memset((void*)&UEP1,0x00,(2));;
   921  000B7A  0E71               	movlw	113
   922  000B7C  0101               	movlb	1	; () banked
   923  000B7E  6F40               	movwf	memset@p1& (0+255),b
   924  000B80  0E0F               	movlw	15
   925  000B82  0101               	movlb	1	; () banked
   926  000B84  6F41               	movwf	(memset@p1+1)& (0+255),b
   927  000B86  0E00               	movlw	0
   928  000B88  0101               	movlb	1	; () banked
   929  000B8A  6F43               	movwf	(memset@c+1)& (0+255),b
   930  000B8C  0E00               	movlw	0
   931  000B8E  6F42               	movwf	memset@c& (0+255),b
   932  000B90  0E00               	movlw	0
   933  000B92  0101               	movlb	1	; () banked
   934  000B94  6F45               	movwf	(memset@n+1)& (0+255),b
   935  000B96  0E02               	movlw	2
   936  000B98  6F44               	movwf	memset@n& (0+255),b
   937  000B9A  ECEC  F011         	call	_memset	;wreg free
   938                           
   939                           ;usb_device.c: 298: { UCFG = 0x10 | 0x00 | 0x04 | 0x02; UEIE = 0x9F; UIE = 0x39 | 0x40 |
      +                           0x02; };
   940  000B9E  0E16               	movlw	22
   941  000BA0  6E6F               	movwf	3951,c	;volatile
   942  000BA2  0E9F               	movlw	159
   943  000BA4  6E6B               	movwf	3947,c	;volatile
   944  000BA6  0E7B               	movlw	123
   945  000BA8  6E69               	movwf	3945,c	;volatile
   946                           
   947                           ;usb_device.c: 301: ;
   948                           ;usb_device.c: 304: ;
   949                           ;usb_device.c: 307: for(i = 0; i < (sizeof(BDT)/sizeof(BDT_ENTRY)); i++)
   950  000BAA  0E00               	movlw	0
   951  000BAC  0101               	movlb	1	; () banked
   952  000BAE  6F48               	movwf	USBDeviceInit@i& (0+255),b
   953  000BB0                     l4326:
   954                           
   955                           ; BSR set to: 1
   956  000BB0  0E0B               	movlw	11
   957  000BB2  0101               	movlb	1	; () banked
   958  000BB4  6548               	cpfsgt	USBDeviceInit@i& (0+255),b
   959  000BB6  D001               	goto	l4330
   960  000BB8  D010               	goto	l236
   961  000BBA                     l4330:
   962                           
   963                           ; BSR set to: 1
   964                           ;usb_device.c: 308: {
   965                           ;usb_device.c: 309: BDT[i].Val = 0x00;
   966  000BBA  0101               	movlb	1	; () banked
   967  000BBC  5148               	movf	USBDeviceInit@i& (0+255),w,b
   968  000BBE  0D04               	mullw	4
   969  000BC0  0E00               	movlw	0
   970  000BC2  24F3               	addwf	prodl,w,c
   971  000BC4  6ED9               	movwf	fsr2l,c
   972  000BC6  0E04               	movlw	4
   973  000BC8  20F4               	addwfc	prodh,w,c
   974  000BCA  6EDA               	movwf	fsr2h,c
   975  000BCC  6ADE               	clrf	postinc2,c
   976  000BCE  6ADE               	clrf	postinc2,c
   977  000BD0  6ADE               	clrf	postinc2,c
   978  000BD2  6ADD               	clrf	postdec2,c
   979                           
   980                           ; BSR set to: 1
   981  000BD4  0101               	movlb	1	; () banked
   982  000BD6  2B48               	incf	USBDeviceInit@i& (0+255),f,b
   983  000BD8  D7EB               	goto	l4326
   984  000BDA                     l236:
   985                           
   986                           ; BSR set to: 1
   987                           ;usb_device.c: 310: }
   988                           ;usb_device.c: 313: UCONbits.PPBRST = 1;
   989  000BDA  8C6D               	bsf	3949,6,c	;volatile
   990                           
   991                           ; BSR set to: 1
   992                           ;usb_device.c: 316: UADDR = 0x00;
   993  000BDC  0E00               	movlw	0
   994  000BDE  6E6E               	movwf	3950,c	;volatile
   995                           
   996                           ; BSR set to: 1
   997                           ;usb_device.c: 319: UCONbits.PKTDIS = 0;
   998  000BE0  986D               	bcf	3949,4,c	;volatile
   999                           
  1000                           ; BSR set to: 1
  1001                           ;usb_device.c: 322: UCONbits.PPBRST = 0;
  1002  000BE2  9C6D               	bcf	3949,6,c	;volatile
  1003  000BE4                     l4342:
  1004                           
  1005                           ;usb_device.c: 326: {
  1006                           ;usb_device.c: 327: (UIR &= 0xF7);
  1007  000BE4  9668               	bcf	3944,3,c	;volatile
  1008                           
  1009                           ;usb_device.c: 329: inPipes[0].info.Val = 0;
  1010  000BE6  0E00               	movlw	0
  1011  000BE8  0100               	movlb	0	; () banked
  1012  000BEA  6F6B               	movwf	(_inPipes+3)& (0+255),b	;volatile
  1013                           
  1014                           ; BSR set to: 0
  1015                           ;usb_device.c: 330: outPipes[0].info.Val = 0;
  1016  000BEC  0E00               	movlw	0
  1017  000BEE  0100               	movlb	0	; () banked
  1018  000BF0  6F63               	movwf	(_outPipes+3)& (0+255),b	;volatile
  1019                           
  1020                           ; BSR set to: 0
  1021                           ;usb_device.c: 331: outPipes[0].wCount.Val = 0;
  1022  000BF2  0E00               	movlw	0
  1023  000BF4  0100               	movlb	0	; () banked
  1024  000BF6  6F65               	movwf	(_outPipes+5)& (0+255),b	;volatile
  1025  000BF8  0E00               	movlw	0
  1026  000BFA  6F64               	movwf	(_outPipes+4)& (0+255),b	;volatile
  1027                           
  1028                           ; BSR set to: 0
  1029                           ;usb_device.c: 332: }while(UIRbits.TRNIF == 1);
  1030  000BFC  B668               	btfsc	3944,3,c	;volatile
  1031  000BFE  D7F2               	goto	l4342
  1032                           
  1033                           ; BSR set to: 0
  1034                           ;usb_device.c: 336: USBStatusStageEnabledFlag1 = 1;
  1035                           
  1036                           ; BSR set to: 0
  1037  000C00  0E01               	movlw	1
  1038  000C02  6E1F               	movwf	_USBStatusStageEnabledFlag1,c	;volatile
  1039                           
  1040                           ;usb_device.c: 337: USBStatusStageEnabledFlag2 = 1;
  1041  000C04  0E01               	movlw	1
  1042  000C06  6E1E               	movwf	_USBStatusStageEnabledFlag2,c	;volatile
  1043                           
  1044                           ;usb_device.c: 339: USBDeferINDataStagePackets = 0;
  1045  000C08  0E00               	movlw	0
  1046  000C0A  6E1D               	movwf	_USBDeferINDataStagePackets,c	;volatile
  1047                           
  1048                           ;usb_device.c: 340: USBDeferOUTDataStagePackets = 0;
  1049  000C0C  0E00               	movlw	0
  1050  000C0E  6E1C               	movwf	_USBDeferOUTDataStagePackets,c	;volatile
  1051                           
  1052                           ;usb_device.c: 341: USBBusIsSuspended = 0;
  1053  000C10  0E00               	movlw	0
  1054  000C12  6E24               	movwf	_USBBusIsSuspended,c	;volatile
  1055                           
  1056                           ;usb_device.c: 345: for(i = 0; i < (uint8_t)(2+1u); i++)
  1057  000C14  0E00               	movlw	0
  1058  000C16  0101               	movlb	1	; () banked
  1059  000C18  6F48               	movwf	USBDeviceInit@i& (0+255),b
  1060  000C1A                     l4354:
  1061                           
  1062                           ; BSR set to: 1
  1063  000C1A  0E02               	movlw	2
  1064  000C1C  0101               	movlb	1	; () banked
  1065  000C1E  6548               	cpfsgt	USBDeviceInit@i& (0+255),b
  1066  000C20  D001               	goto	l4358
  1067  000C22  D033               	goto	l4364
  1068  000C24                     l4358:
  1069                           
  1070                           ; BSR set to: 1
  1071                           ;usb_device.c: 346: {
  1072                           ;usb_device.c: 347: pBDTEntryIn[i] = 0u;
  1073  000C24  0101               	movlb	1	; () banked
  1074  000C26  5148               	movf	USBDeviceInit@i& (0+255),w,b
  1075  000C28  0D02               	mullw	2
  1076  000C2A  0E6E               	movlw	low _pBDTEntryIn
  1077  000C2C  24F3               	addwf	prodl,w,c
  1078  000C2E  6ED9               	movwf	fsr2l,c
  1079  000C30  0E00               	movlw	high _pBDTEntryIn
  1080  000C32  20F4               	addwfc	prodh,w,c
  1081  000C34  6EDA               	movwf	fsr2h,c
  1082  000C36  0E00               	movlw	0
  1083  000C38  6EDE               	movwf	postinc2,c
  1084  000C3A  0E00               	movlw	0
  1085  000C3C  6EDD               	movwf	postdec2,c
  1086                           
  1087                           ;usb_device.c: 348: pBDTEntryOut[i] = 0u;
  1088  000C3E  0101               	movlb	1	; () banked
  1089  000C40  5148               	movf	USBDeviceInit@i& (0+255),w,b
  1090  000C42  0D02               	mullw	2
  1091  000C44  0E74               	movlw	low _pBDTEntryOut
  1092  000C46  24F3               	addwf	prodl,w,c
  1093  000C48  6ED9               	movwf	fsr2l,c
  1094  000C4A  0E00               	movlw	high _pBDTEntryOut
  1095  000C4C  20F4               	addwfc	prodh,w,c
  1096  000C4E  6EDA               	movwf	fsr2h,c
  1097  000C50  0E00               	movlw	0
  1098  000C52  6EDE               	movwf	postinc2,c
  1099  000C54  0E00               	movlw	0
  1100  000C56  6EDD               	movwf	postdec2,c
  1101                           
  1102                           ;usb_device.c: 349: ep_data_in[i].Val = 0u;
  1103  000C58  0101               	movlb	1	; () banked
  1104  000C5A  5148               	movf	USBDeviceInit@i& (0+255),w,b
  1105  000C5C  0D01               	mullw	1
  1106  000C5E  0E81               	movlw	low _ep_data_in
  1107  000C60  24F3               	addwf	prodl,w,c
  1108  000C62  6ED9               	movwf	fsr2l,c
  1109  000C64  0E00               	movlw	high _ep_data_in
  1110  000C66  20F4               	addwfc	prodh,w,c
  1111  000C68  6EDA               	movwf	fsr2h,c
  1112  000C6A  0E00               	movlw	0
  1113  000C6C  6EDF               	movwf	indf2,c
  1114                           
  1115                           ;usb_device.c: 350: ep_data_out[i].Val = 0u;
  1116  000C6E  0101               	movlb	1	; () banked
  1117  000C70  5148               	movf	USBDeviceInit@i& (0+255),w,b
  1118  000C72  0D01               	mullw	1
  1119  000C74  0E7E               	movlw	low _ep_data_out
  1120  000C76  24F3               	addwf	prodl,w,c
  1121  000C78  6ED9               	movwf	fsr2l,c
  1122  000C7A  0E00               	movlw	high _ep_data_out
  1123  000C7C  20F4               	addwfc	prodh,w,c
  1124  000C7E  6EDA               	movwf	fsr2h,c
  1125  000C80  0E00               	movlw	0
  1126  000C82  6EDF               	movwf	indf2,c
  1127                           
  1128                           ; BSR set to: 1
  1129  000C84  0101               	movlb	1	; () banked
  1130  000C86  2B48               	incf	USBDeviceInit@i& (0+255),f,b
  1131  000C88  D7C8               	goto	l4354
  1132  000C8A                     l4364:
  1133                           
  1134                           ; BSR set to: 1
  1135                           ;usb_device.c: 351: }
  1136                           ;usb_device.c: 354: pBDTEntryIn[0] = (volatile BDT_ENTRY*)&BDT[2];
  1137  000C8A  0E08               	movlw	8
  1138  000C8C  0100               	movlb	0	; () banked
  1139  000C8E  6F6E               	movwf	_pBDTEntryIn& (0+255),b
  1140  000C90  0E04               	movlw	4
  1141  000C92  0100               	movlb	0	; () banked
  1142  000C94  6F6F               	movwf	(_pBDTEntryIn+1)& (0+255),b
  1143                           
  1144                           ; BSR set to: 0
  1145                           ;usb_device.c: 356: UEP0 = 0x06|0x10;
  1146  000C96  0E16               	movlw	22
  1147  000C98  6E70               	movwf	3952,c	;volatile
  1148                           
  1149                           ; BSR set to: 0
  1150                           ;usb_device.c: 358: BDT[0].ADR = ((uint16_t)(&SetupPkt));
  1151  000C9A  0E04               	movlw	4
  1152  000C9C  0104               	movlb	4	; () banked
  1153  000C9E  6F03               	movwf	3,b	;volatile
  1154  000CA0  0E30               	movlw	48
  1155  000CA2  6F02               	movwf	2,b	;volatile
  1156                           
  1157                           ; BSR set to: 4
  1158                           ;usb_device.c: 359: BDT[0].CNT = 8;
  1159  000CA4  0E08               	movlw	8
  1160  000CA6  0104               	movlb	4	; () banked
  1161  000CA8  6F01               	movwf	1,b	;volatile
  1162                           
  1163                           ; BSR set to: 4
  1164                           ;usb_device.c: 360: BDT[0].STAT.Val = 0x00|0x04;
  1165  000CAA  0E04               	movlw	4
  1166  000CAC  0104               	movlb	4	; () banked
  1167  000CAE  6F00               	movwf	0,b	;volatile
  1168                           
  1169                           ; BSR set to: 4
  1170                           ;usb_device.c: 361: BDT[0].STAT.Val |= 0x80;
  1171  000CB0  0104               	movlb	4	; () banked
  1172  000CB2  8F00               	bsf	0,7,b	;volatile
  1173                           
  1174                           ; BSR set to: 4
  1175                           ;usb_device.c: 364: USBActiveConfiguration = 0;
  1176  000CB4  0E00               	movlw	0
  1177  000CB6  6E2C               	movwf	_USBActiveConfiguration,c	;volatile
  1178                           
  1179                           ; BSR set to: 4
  1180                           ;usb_device.c: 366: USB1msTickCount = 0;
  1181  000CB8  0E00               	movlw	0
  1182  000CBA  6E01               	movwf	_USB1msTickCount,c	;volatile
  1183  000CBC  0E00               	movlw	0
  1184  000CBE  6E02               	movwf	_USB1msTickCount+1,c	;volatile
  1185  000CC0  0E00               	movlw	0
  1186  000CC2  6E03               	movwf	_USB1msTickCount+2,c	;volatile
  1187  000CC4  0E00               	movlw	0
  1188  000CC6  6E04               	movwf	_USB1msTickCount+3,c	;volatile
  1189                           
  1190                           ; BSR set to: 4
  1191                           ;usb_device.c: 367: USBTicksSinceSuspendEnd = 0;
  1192  000CC8  0E00               	movlw	0
  1193  000CCA  6E1B               	movwf	_USBTicksSinceSuspendEnd,c	;volatile
  1194                           
  1195                           ; BSR set to: 4
  1196                           ;usb_device.c: 370: USBDeviceState = DETACHED_STATE;
  1197  000CCC  0E00               	movlw	0
  1198  000CCE  6E28               	movwf	_USBDeviceState,c	;volatile
  1199                           
  1200                           ; BSR set to: 4
  1201  000CD0  0012               	return		;funcret
  1202  000CD2                     __end_of_USBDeviceInit:
  1203                           	opt stack 0
  1204                           tblptru	equ	0xFF8
  1205                           prodh	equ	0xFF4
  1206                           prodl	equ	0xFF3
  1207                           postinc0	equ	0xFEE
  1208                           wreg	equ	0xFE8
  1209                           indf2	equ	0xFDF
  1210                           postinc2	equ	0xFDE
  1211                           postdec2	equ	0xFDD
  1212                           fsr2h	equ	0xFDA
  1213                           fsr2l	equ	0xFD9
  1214                           
  1215 ;; *************** function _memset *****************
  1216 ;; Defined at:
  1217 ;;		line 8 in file "D:\Program Files (x86)\Microchip\xc8\v1.42\sources\common\memset.c"
  1218 ;; Parameters:    Size  Location     Type
  1219 ;;  p1              2    0[BANK1 ] PTR void 
  1220 ;;		 -> USBAlternateInterface(2), BDT(48), UEP1(1), 
  1221 ;;  c               2    2[BANK1 ] int 
  1222 ;;  n               2    4[BANK1 ] unsigned int 
  1223 ;; Auto vars:     Size  Location     Type
  1224 ;;  p               2    6[BANK1 ] PTR unsigned char 
  1225 ;;		 -> USBAlternateInterface(2), BDT(48), UEP1(1), 
  1226 ;; Return value:  Size  Location     Type
  1227 ;;                  2    0[BANK1 ] PTR void 
  1228 ;; Registers used:
  1229 ;;		wreg, fsr2l, fsr2h, status,2, status,0
  1230 ;; Tracked objects:
  1231 ;;		On entry : 0/0
  1232 ;;		On exit  : 0/0
  1233 ;;		Unchanged: 0/0
  1234 ;; Data sizes:     COMRAM   BANK0   BANK1   BANK2   BANK3   BANK4   BANK5   BANK6   BANK7
  1235 ;;      Params:         0       0       6       0       0       0       0       0       0
  1236 ;;      Locals:         0       0       2       0       0       0       0       0       0
  1237 ;;      Temps:          0       0       0       0       0       0       0       0       0
  1238 ;;      Totals:         0       0       8       0       0       0       0       0       0
  1239 ;;Total ram usage:        8 bytes
  1240 ;; Hardware stack levels used:    1
  1241 ;; Hardware stack levels required when called:   12
  1242 ;; This function calls:
  1243 ;;		Nothing
  1244 ;; This function is called by:
  1245 ;;		_USBDeviceInit
  1246 ;; This function uses a non-reentrant model
  1247 ;;
  1248                           
  1249                           	psect	text2
  1250  0023D8                     __ptext2:
  1251                           	opt stack 0
  1252  0023D8                     _memset:
  1253                           	opt stack 17
  1254                           
  1255                           ; BSR set to: 4
  1256                           ;incstack = 0
  1257  0023D8  C140  F146         	movff	memset@p1,memset@p
  1258  0023DC  C141  F147         	movff	memset@p1+1,memset@p+1
  1259  0023E0  D009               	goto	l4292
  1260  0023E2                     l4288:
  1261  0023E2  C146  FFD9         	movff	memset@p,fsr2l
  1262  0023E6  C147  FFDA         	movff	memset@p+1,fsr2h
  1263  0023EA  C142  FFDF         	movff	memset@c,indf2
  1264  0023EE  0101               	movlb	1	; () banked
  1265  0023F0  4B46               	infsnz	memset@p& (0+255),f,b
  1266  0023F2  2B47               	incf	(memset@p+1)& (0+255),f,b
  1267  0023F4                     l4292:
  1268  0023F4  0101               	movlb	1	; () banked
  1269  0023F6  0744               	decf	memset@n& (0+255),f,b
  1270  0023F8  A0D8               	btfss	status,0,c
  1271  0023FA  0745               	decf	(memset@n+1)& (0+255),f,b
  1272  0023FC  0101               	movlb	1	; () banked
  1273  0023FE  2944               	incf	memset@n& (0+255),w,b
  1274  002400  E1F0               	bnz	l4288
  1275  002402  0101               	movlb	1	; () banked
  1276  002404  2945               	incf	(memset@n+1)& (0+255),w,b
  1277  002406  B4D8               	btfsc	status,2,c
  1278  002408  0012               	return	
  1279  00240A  D7EB               	goto	l4288
  1280  00240C                     __end_of_memset:
  1281                           	opt stack 0
  1282                           tblptru	equ	0xFF8
  1283                           prodh	equ	0xFF4
  1284                           prodl	equ	0xFF3
  1285                           postinc0	equ	0xFEE
  1286                           wreg	equ	0xFE8
  1287                           indf2	equ	0xFDF
  1288                           postinc2	equ	0xFDE
  1289                           postdec2	equ	0xFDD
  1290                           fsr2h	equ	0xFDA
  1291                           fsr2l	equ	0xFD9
  1292                           status	equ	0xFD8
  1293                           
  1294 ;; *************** function _USBDeviceAttach *****************
  1295 ;; Defined at:
  1296 ;;		line 1352 in file "../mla/v2017_03_06/framework/usb/src/usb_device.c"
  1297 ;; Parameters:    Size  Location     Type
  1298 ;;		None
  1299 ;; Auto vars:     Size  Location     Type
  1300 ;;		None
  1301 ;; Return value:  Size  Location     Type
  1302 ;;                  1    wreg      void 
  1303 ;; Registers used:
  1304 ;;		wreg, status,2
  1305 ;; Tracked objects:
  1306 ;;		On entry : 0/0
  1307 ;;		On exit  : 0/0
  1308 ;;		Unchanged: 0/0
  1309 ;; Data sizes:     COMRAM   BANK0   BANK1   BANK2   BANK3   BANK4   BANK5   BANK6   BANK7
  1310 ;;      Params:         0       0       0       0       0       0       0       0       0
  1311 ;;      Locals:         0       0       0       0       0       0       0       0       0
  1312 ;;      Temps:          0       0       0       0       0       0       0       0       0
  1313 ;;      Totals:         0       0       0       0       0       0       0       0       0
  1314 ;;Total ram usage:        0 bytes
  1315 ;; Hardware stack levels used:    1
  1316 ;; Hardware stack levels required when called:   12
  1317 ;; This function calls:
  1318 ;;		Nothing
  1319 ;; This function is called by:
  1320 ;;		_main
  1321 ;; This function uses a non-reentrant model
  1322 ;;
  1323                           
  1324                           	psect	text3
  1325  002470                     __ptext3:
  1326                           	opt stack 0
  1327  002470                     _USBDeviceAttach:
  1328                           	opt stack 18
  1329                           
  1330                           ;usb_device.c: 1356: {
  1331                           ;usb_device.c: 1357: if(1 == 1)
  1332                           
  1333                           ; BSR set to: 1
  1334                           ;incstack = 0
  1335  002470  5028               	movf	_USBDeviceState,w,c	;volatile
  1336  002472  A4D8               	btfss	status,2,c
  1337  002474  0012               	return	
  1338                           
  1339                           ;usb_device.c: 1358: {
  1340                           ;usb_device.c: 1360: UCON = 0;
  1341  002476  0E00               	movlw	0
  1342  002478  6E6D               	movwf	3949,c	;volatile
  1343                           
  1344                           ;usb_device.c: 1363: UIE = 0;
  1345  00247A  0E00               	movlw	0
  1346  00247C  6E69               	movwf	3945,c	;volatile
  1347                           
  1348                           ;usb_device.c: 1367: { UCFG = 0x10 | 0x00 | 0x04 | 0x02; UEIE = 0x9F; UIE = 0x39 | 0x40 
      +                          | 0x02; };
  1349  00247E  0E16               	movlw	22
  1350  002480  6E6F               	movwf	3951,c	;volatile
  1351  002482  0E9F               	movlw	159
  1352  002484  6E6B               	movwf	3947,c	;volatile
  1353  002486  0E7B               	movlw	123
  1354  002488  6E69               	movwf	3945,c	;volatile
  1355                           
  1356                           ;usb_device.c: 1369: {RCONbits.IPEN = 1;IPR2bits.USBIP = 1;PIE2bits.USBIE = 1;INTCONbits
      +                          .GIEH = 1;};
  1357  00248A  8ED0               	bsf	4048,7,c	;volatile
  1358  00248C  8AA2               	bsf	4002,5,c	;volatile
  1359  00248E  8AA0               	bsf	4000,5,c	;volatile
  1360  002490  8EF2               	bsf	intcon,7,c	;volatile
  1361                           
  1362                           ;usb_device.c: 1372: while(!UCONbits.USBEN){UCONbits.USBEN = 1;}
  1363  002492  D001               	goto	l296
  1364  002494                     l297:
  1365  002494  866D               	bsf	3949,3,c	;volatile
  1366  002496                     l296:
  1367  002496  A66D               	btfss	3949,3,c	;volatile
  1368  002498  D7FD               	goto	l297
  1369                           
  1370                           ;usb_device.c: 1375: USBDeviceState = ATTACHED_STATE;
  1371  00249A  0E01               	movlw	1
  1372  00249C  6E28               	movwf	_USBDeviceState,c	;volatile
  1373  00249E  0012               	return	
  1374  0024A0                     __end_of_USBDeviceAttach:
  1375                           	opt stack 0
  1376                           tblptru	equ	0xFF8
  1377                           prodh	equ	0xFF4
  1378                           prodl	equ	0xFF3
  1379                           intcon	equ	0xFF2
  1380                           postinc0	equ	0xFEE
  1381                           wreg	equ	0xFE8
  1382                           indf2	equ	0xFDF
  1383                           postinc2	equ	0xFDE
  1384                           postdec2	equ	0xFDD
  1385                           fsr2h	equ	0xFDA
  1386                           fsr2l	equ	0xFD9
  1387                           status	equ	0xFD8
  1388                           
  1389 ;; *************** function _SYSTEM_Initialize *****************
  1390 ;; Defined at:
  1391 ;;		line 35 in file "system.c"
  1392 ;; Parameters:    Size  Location     Type
  1393 ;;  state           1    wreg     enum E3323
  1394 ;; Auto vars:     Size  Location     Type
  1395 ;;  state           1    0[BANK1 ] enum E3323
  1396 ;; Return value:  Size  Location     Type
  1397 ;;                  1    wreg      void 
  1398 ;; Registers used:
  1399 ;;		wreg, status,2, status,0
  1400 ;; Tracked objects:
  1401 ;;		On entry : 0/0
  1402 ;;		On exit  : 0/0
  1403 ;;		Unchanged: 0/0
  1404 ;; Data sizes:     COMRAM   BANK0   BANK1   BANK2   BANK3   BANK4   BANK5   BANK6   BANK7
  1405 ;;      Params:         0       0       0       0       0       0       0       0       0
  1406 ;;      Locals:         0       0       1       0       0       0       0       0       0
  1407 ;;      Temps:          0       0       0       0       0       0       0       0       0
  1408 ;;      Totals:         0       0       1       0       0       0       0       0       0
  1409 ;;Total ram usage:        1 bytes
  1410 ;; Hardware stack levels used:    1
  1411 ;; Hardware stack levels required when called:   12
  1412 ;; This function calls:
  1413 ;;		Nothing
  1414 ;; This function is called by:
  1415 ;;		_main
  1416 ;; This function uses a non-reentrant model
  1417 ;;
  1418                           
  1419                           	psect	text4
  1420  00235C                     __ptext4:
  1421                           	opt stack 0
  1422  00235C                     _SYSTEM_Initialize:
  1423                           	opt stack 18
  1424                           
  1425                           ;incstack = 0
  1426                           ;SYSTEM_Initialize@state stored from wreg
  1427  00235C  0101               	movlb	1	; () banked
  1428  00235E  6F40               	movwf	SYSTEM_Initialize@state& (0+255),b
  1429                           
  1430                           ;system.c: 37: switch(state)
  1431  002360  D013               	goto	l4302
  1432  002362                     l46:
  1433                           
  1434                           ; BSR set to: 1
  1435                           ;system.c: 41: OSCCONbits.IRCF = 0b111;
  1436  002362  88D3               	bsf	4051,4,c	;volatile
  1437  002364  8AD3               	bsf	4051,5,c	;volatile
  1438  002366  8CD3               	bsf	4051,6,c	;volatile
  1439                           
  1440                           ;system.c: 43: OSCCONbits.SCS1 = 0;
  1441  002368  92D3               	bcf	4051,1,c	;volatile
  1442                           
  1443                           ;system.c: 44: OSCCONbits.SCS0 = 0;
  1444  00236A  90D3               	bcf	4051,0,c	;volatile
  1445                           
  1446                           ;system.c: 47: TRISA = 0b11111111;
  1447  00236C  6892               	setf	3986,c	;volatile
  1448                           
  1449                           ; BSR set to: 1
  1450                           ;system.c: 48: TRISB = 0b00001111;
  1451  00236E  0E0F               	movlw	15
  1452  002370  6E93               	movwf	3987,c	;volatile
  1453                           
  1454                           ;system.c: 49: TRISC = 0b10000000;
  1455  002372  0E80               	movlw	128
  1456  002374  6E94               	movwf	3988,c	;volatile
  1457                           
  1458                           ;system.c: 52: LATA = 0x00;
  1459  002376  0E00               	movlw	0
  1460  002378  6E89               	movwf	3977,c	;volatile
  1461                           
  1462                           ;system.c: 53: LATB = 0xF0;
  1463  00237A  0EF0               	movlw	240
  1464  00237C  6E8A               	movwf	3978,c	;volatile
  1465                           
  1466                           ;system.c: 54: LATC = 0b10000000;
  1467  00237E  0E80               	movlw	128
  1468  002380  6E8B               	movwf	3979,c	;volatile
  1469                           
  1470                           ; BSR set to: 1
  1471                           ;system.c: 56: ADCON1 |= 0x0F;
  1472  002382  0E0F               	movlw	15
  1473  002384  12C1               	iorwf	4033,f,c	;volatile
  1474                           
  1475                           ; BSR set to: 1
  1476                           ;system.c: 64: }
  1477                           
  1478                           ; BSR set to: 1
  1479                           ;system.c: 63: break;
  1480                           
  1481                           ;system.c: 62: case SYSTEM_STATE_USB_RESUME:
  1482                           
  1483                           ; BSR set to: 1
  1484                           ;system.c: 60: break;
  1485                           
  1486                           ;system.c: 59: case SYSTEM_STATE_USB_SUSPEND:
  1487                           
  1488                           ;system.c: 57: break;
  1489  002386  0012               	return	
  1490  002388                     l4302:
  1491  002388  0101               	movlb	1	; () banked
  1492  00238A  5140               	movf	SYSTEM_Initialize@state& (0+255),w,b
  1493                           
  1494                           ; Switch size 1, requested type "space"
  1495                           ; Number of cases is 3, Range of values is 0 to 2
  1496                           ; switch strategies available:
  1497                           ; Name         Instructions Cycles
  1498                           ; simple_byte           10     6 (average)
  1499                           ;	Chosen strategy is simple_byte
  1500  00238C  0A00               	xorlw	0	; case 0
  1501  00238E  B4D8               	btfsc	status,2,c
  1502  002390  D7E8               	goto	l46
  1503  002392  0A01               	xorlw	1	; case 1
  1504  002394  B4D8               	btfsc	status,2,c
  1505  002396  0012               	return	
  1506  002398  0A03               	xorlw	3	; case 2
  1507  00239A  0012               	return	
  1508  00239C                     __end_of_SYSTEM_Initialize:
  1509                           	opt stack 0
  1510                           tblptru	equ	0xFF8
  1511                           prodh	equ	0xFF4
  1512                           prodl	equ	0xFF3
  1513                           intcon	equ	0xFF2
  1514                           postinc0	equ	0xFEE
  1515                           wreg	equ	0xFE8
  1516                           indf2	equ	0xFDF
  1517                           postinc2	equ	0xFDE
  1518                           postdec2	equ	0xFDD
  1519                           fsr2h	equ	0xFDA
  1520                           fsr2l	equ	0xFD9
  1521                           status	equ	0xFD8
  1522                           
  1523 ;; *************** function _CDC_Routine *****************
  1524 ;; Defined at:
  1525 ;;		line 50 in file "main_cdc.c"
  1526 ;; Parameters:    Size  Location     Type
  1527 ;;		None
  1528 ;; Auto vars:     Size  Location     Type
  1529 ;;		None
  1530 ;; Return value:  Size  Location     Type
  1531 ;;                  1    wreg      void 
  1532 ;; Registers used:
  1533 ;;		wreg, fsr1l, fsr1h, fsr2l, fsr2h, status,2, status,0, prodl, prodh, cstack
  1534 ;; Tracked objects:
  1535 ;;		On entry : 0/0
  1536 ;;		On exit  : 0/0
  1537 ;;		Unchanged: 0/0
  1538 ;; Data sizes:     COMRAM   BANK0   BANK1   BANK2   BANK3   BANK4   BANK5   BANK6   BANK7
  1539 ;;      Params:         0       0       0       0       0       0       0       0       0
  1540 ;;      Locals:         0       0       0       0       0       0       0       0       0
  1541 ;;      Temps:          0       0       0       0       0       0       0       0       0
  1542 ;;      Totals:         0       0       0       0       0       0       0       0       0
  1543 ;;Total ram usage:        0 bytes
  1544 ;; Hardware stack levels used:    1
  1545 ;; Hardware stack levels required when called:   15
  1546 ;; This function calls:
  1547 ;;		_APP_DeviceCDCEmulatorTasks
  1548 ;; This function is called by:
  1549 ;;		_main
  1550 ;; This function uses a non-reentrant model
  1551 ;;
  1552                           
  1553                           	psect	text5
  1554  002578                     __ptext5:
  1555                           	opt stack 0
  1556  002578                     _CDC_Routine:
  1557                           	opt stack 15
  1558                           
  1559                           ;main_cdc.c: 55: if( USBDeviceState < CONFIGURED_STATE )
  1560                           
  1561                           ; BSR set to: 1
  1562                           ;incstack = 0
  1563  002578  0E20               	movlw	32
  1564  00257A  6028               	cpfslt	_USBDeviceState,c	;volatile
  1565  00257C  D001               	goto	l63
  1566  00257E  0012               	return	
  1567  002580                     l63:
  1568                           
  1569                           ;main_cdc.c: 59: }
  1570                           ;main_cdc.c: 65: if( UCONbits.SUSPND== 1 )
  1571  002580  B26D               	btfsc	3949,1,c	;volatile
  1572  002582  0012               	return	
  1573                           
  1574                           ;main_cdc.c: 69: }
  1575                           ;main_cdc.c: 72: APP_DeviceCDCEmulatorTasks();
  1576                           
  1577                           ;main_cdc.c: 66: {
  1578                           ;main_cdc.c: 68: return;
  1579  002584  EC46  F00D         	call	_APP_DeviceCDCEmulatorTasks	;wreg free
  1580  002588  0012               	return		;funcret
  1581  00258A                     __end_of_CDC_Routine:
  1582                           	opt stack 0
  1583                           tblptru	equ	0xFF8
  1584                           prodh	equ	0xFF4
  1585                           prodl	equ	0xFF3
  1586                           intcon	equ	0xFF2
  1587                           postinc0	equ	0xFEE
  1588                           wreg	equ	0xFE8
  1589                           indf2	equ	0xFDF
  1590                           postinc2	equ	0xFDE
  1591                           postdec2	equ	0xFDD
  1592                           fsr2h	equ	0xFDA
  1593                           fsr2l	equ	0xFD9
  1594                           status	equ	0xFD8
  1595                           
  1596 ;; *************** function _APP_DeviceCDCEmulatorTasks *****************
  1597 ;; Defined at:
  1598 ;;		line 102 in file "../mla/v2017_03_06/framework/usb/src/app_device_cdc_to_uart.c"
  1599 ;; Parameters:    Size  Location     Type
  1600 ;;		None
  1601 ;; Auto vars:     Size  Location     Type
  1602 ;;		None
  1603 ;; Return value:  Size  Location     Type
  1604 ;;                  1    wreg      void 
  1605 ;; Registers used:
  1606 ;;		wreg, fsr1l, fsr1h, fsr2l, fsr2h, status,2, status,0, prodl, prodh, cstack
  1607 ;; Tracked objects:
  1608 ;;		On entry : 0/0
  1609 ;;		On exit  : 0/0
  1610 ;;		Unchanged: 0/0
  1611 ;; Data sizes:     COMRAM   BANK0   BANK1   BANK2   BANK3   BANK4   BANK5   BANK6   BANK7
  1612 ;;      Params:         0       0       0       0       0       0       0       0       0
  1613 ;;      Locals:         0       0       0       0       0       0       0       0       0
  1614 ;;      Temps:          0       0       0       0       0       0       0       0       0
  1615 ;;      Totals:         0       0       0       0       0       0       0       0       0
  1616 ;;Total ram usage:        0 bytes
  1617 ;; Hardware stack levels used:    1
  1618 ;; Hardware stack levels required when called:   14
  1619 ;; This function calls:
  1620 ;;		_CDCTxService
  1621 ;;		_USART_getcUSART
  1622 ;;		_USART_putcUSART
  1623 ;;		_getsUSBUSART
  1624 ;;		_putUSBUSART
  1625 ;; This function is called by:
  1626 ;;		_CDC_Routine
  1627 ;; This function uses a non-reentrant model
  1628 ;;
  1629                           
  1630                           	psect	text6
  1631  001A8C                     __ptext6:
  1632                           	opt stack 0
  1633  001A8C                     _APP_DeviceCDCEmulatorTasks:
  1634                           	opt stack 15
  1635                           
  1636                           ;app_device_cdc_to_uart.c: 107: if( USBDeviceState < CONFIGURED_STATE )
  1637                           
  1638                           ;incstack = 0
  1639  001A8C  0E20               	movlw	32
  1640  001A8E  6028               	cpfslt	_USBDeviceState,c	;volatile
  1641  001A90  D001               	goto	l662
  1642  001A92  0012               	return	
  1643  001A94                     l662:
  1644                           
  1645                           ;app_device_cdc_to_uart.c: 110: }
  1646                           ;app_device_cdc_to_uart.c: 116: if( UCONbits.SUSPND== 1 )
  1647  001A94  B26D               	btfsc	3949,1,c	;volatile
  1648  001A96  0012               	return	
  1649                           
  1650                           ;app_device_cdc_to_uart.c: 119: }
  1651                           ;app_device_cdc_to_uart.c: 121: if (RS232_Out_Data_Rdy == 0)
  1652                           
  1653                           ;app_device_cdc_to_uart.c: 117: {
  1654                           ;app_device_cdc_to_uart.c: 118: return;
  1655  001A98  5013               	movf	_RS232_Out_Data_Rdy,w,c
  1656  001A9A  A4D8               	btfss	status,2,c
  1657  001A9C  D013               	goto	l665
  1658                           
  1659                           ;app_device_cdc_to_uart.c: 122: {
  1660                           ;app_device_cdc_to_uart.c: 123: LastRS232Out = getsUSBUSART(RS232_Out_Data,64);
  1661  001A9E  0E00               	movlw	low _RS232_Out_Data
  1662  001AA0  0101               	movlb	1	; () banked
  1663  001AA2  6F4B               	movwf	getsUSBUSART@buffer& (0+255),b
  1664  001AA4  0E01               	movlw	high _RS232_Out_Data
  1665  001AA6  0101               	movlb	1	; () banked
  1666  001AA8  6F4C               	movwf	(getsUSBUSART@buffer+1)& (0+255),b
  1667  001AAA  0E40               	movlw	64
  1668  001AAC  0101               	movlb	1	; () banked
  1669  001AAE  6F4D               	movwf	getsUSBUSART@len& (0+255),b
  1670  001AB0  EC0A  F00E         	call	_getsUSBUSART	;wreg free
  1671  001AB4  6E15               	movwf	_LastRS232Out,c
  1672                           
  1673                           ;app_device_cdc_to_uart.c: 124: if(LastRS232Out > 0)
  1674  001AB6  5015               	movf	_LastRS232Out,w,c
  1675  001AB8  B4D8               	btfsc	status,2,c
  1676  001ABA  D004               	goto	l665
  1677                           
  1678                           ;app_device_cdc_to_uart.c: 125: {
  1679                           ;app_device_cdc_to_uart.c: 126: RS232_Out_Data_Rdy = 1;
  1680  001ABC  0E01               	movlw	1
  1681  001ABE  6E13               	movwf	_RS232_Out_Data_Rdy,c
  1682                           
  1683                           ;app_device_cdc_to_uart.c: 127: RS232cp = 0;
  1684  001AC0  0E00               	movlw	0
  1685  001AC2  6E14               	movwf	_RS232cp,c
  1686  001AC4                     l665:
  1687                           
  1688                           ;app_device_cdc_to_uart.c: 128: }
  1689                           ;app_device_cdc_to_uart.c: 129: }
  1690                           ;app_device_cdc_to_uart.c: 133: if(RS232_Out_Data_Rdy && TXSTAbits.TRMT)
  1691  001AC4  5013               	movf	_RS232_Out_Data_Rdy,w,c
  1692  001AC6  A4D8               	btfss	status,2,c
  1693  001AC8  A2AC               	btfss	4012,1,c	;volatile
  1694  001ACA  D012               	goto	l4266
  1695                           
  1696                           ;app_device_cdc_to_uart.c: 134: {
  1697                           ;app_device_cdc_to_uart.c: 136: USART_putcUSART(RS232_Out_Data[RS232cp]);
  1698  001ACC  5014               	movf	_RS232cp,w,c
  1699  001ACE  0D01               	mullw	1
  1700  001AD0  0E00               	movlw	low _RS232_Out_Data
  1701  001AD2  24F3               	addwf	prodl,w,c
  1702  001AD4  6ED9               	movwf	fsr2l,c
  1703  001AD6  0E01               	movlw	high _RS232_Out_Data
  1704  001AD8  20F4               	addwfc	prodh,w,c
  1705  001ADA  6EDA               	movwf	fsr2h,c
  1706  001ADC  50DF               	movf	indf2,w,c
  1707  001ADE  ECC5  F012         	call	_USART_putcUSART
  1708                           
  1709                           ;app_device_cdc_to_uart.c: 137: ++RS232cp;
  1710  001AE2  2A14               	incf	_RS232cp,f,c
  1711                           
  1712                           ;app_device_cdc_to_uart.c: 138: if (RS232cp == LastRS232Out)
  1713  001AE4  5015               	movf	_LastRS232Out,w,c
  1714  001AE6  1814               	xorwf	_RS232cp,w,c
  1715  001AE8  A4D8               	btfss	status,2,c
  1716  001AEA  D002               	goto	l4266
  1717                           
  1718                           ;app_device_cdc_to_uart.c: 139: RS232_Out_Data_Rdy = 0;
  1719  001AEC  0E00               	movlw	0
  1720  001AEE  6E13               	movwf	_RS232_Out_Data_Rdy,c
  1721  001AF0                     l4266:
  1722                           
  1723                           ;app_device_cdc_to_uart.c: 140: }
  1724                           ;app_device_cdc_to_uart.c: 144: if(PIR1bits.RCIF && (NextUSBOut < (64 - 1))){
  1725  001AF0  AA9E               	btfss	3998,5,c	;volatile
  1726  001AF2  D019               	goto	l4276
  1727  001AF4  0E3F               	movlw	63
  1728  001AF6  6016               	cpfslt	_NextUSBOut,c
  1729  001AF8  D016               	goto	l4276
  1730                           
  1731                           ;app_device_cdc_to_uart.c: 145: USB_Out_Buffer[NextUSBOut] = USART_getcUSART();
  1732  001AFA  5016               	movf	_NextUSBOut,w,c
  1733  001AFC  0D01               	mullw	1
  1734  001AFE  0E89               	movlw	low _USB_Out_Buffer
  1735  001B00  24F3               	addwf	prodl,w,c
  1736  001B02  6ED9               	movwf	fsr2l,c
  1737  001B04  0E00               	movlw	high _USB_Out_Buffer
  1738  001B06  20F4               	addwfc	prodh,w,c
  1739  001B08  6EDA               	movwf	fsr2h,c
  1740  001B0A  EC9B  F012         	call	_USART_getcUSART	;wreg free
  1741  001B0E  6EDF               	movwf	indf2,c
  1742                           
  1743                           ;app_device_cdc_to_uart.c: 146: ++NextUSBOut;
  1744  001B10  2A16               	incf	_NextUSBOut,f,c
  1745                           
  1746                           ;app_device_cdc_to_uart.c: 147: USB_Out_Buffer[NextUSBOut] = 0;
  1747  001B12  5016               	movf	_NextUSBOut,w,c
  1748  001B14  0D01               	mullw	1
  1749  001B16  0E89               	movlw	low _USB_Out_Buffer
  1750  001B18  24F3               	addwf	prodl,w,c
  1751  001B1A  6ED9               	movwf	fsr2l,c
  1752  001B1C  0E00               	movlw	high _USB_Out_Buffer
  1753  001B1E  20F4               	addwfc	prodh,w,c
  1754  001B20  6EDA               	movwf	fsr2h,c
  1755  001B22  0E00               	movlw	0
  1756  001B24  6EDF               	movwf	indf2,c
  1757  001B26                     l4276:
  1758                           
  1759                           ;app_device_cdc_to_uart.c: 148: }
  1760                           ;app_device_cdc_to_uart.c: 153: if(((cdc_trf_state == 0)) && (NextUSBOut > 0))
  1761  001B26  501A               	movf	_cdc_trf_state,w,c
  1762  001B28  A4D8               	btfss	status,2,c
  1763  001B2A  D00F               	goto	l4284
  1764  001B2C  5016               	movf	_NextUSBOut,w,c
  1765  001B2E  B4D8               	btfsc	status,2,c
  1766  001B30  D00C               	goto	l4284
  1767                           
  1768                           ;app_device_cdc_to_uart.c: 154: {
  1769                           ;app_device_cdc_to_uart.c: 155: putUSBUSART(&USB_Out_Buffer[0], NextUSBOut);
  1770  001B32  0E89               	movlw	low _USB_Out_Buffer
  1771  001B34  0101               	movlb	1	; () banked
  1772  001B36  6F40               	movwf	putUSBUSART@data& (0+255),b
  1773  001B38  0E00               	movlw	high _USB_Out_Buffer
  1774  001B3A  0101               	movlb	1	; () banked
  1775  001B3C  6F41               	movwf	(putUSBUSART@data+1)& (0+255),b
  1776  001B3E  C016  F142         	movff	_NextUSBOut,putUSBUSART@length
  1777  001B42  EC7C  F012         	call	_putUSBUSART	;wreg free
  1778                           
  1779                           ;app_device_cdc_to_uart.c: 156: NextUSBOut = 0;
  1780  001B46  0E00               	movlw	0
  1781  001B48  6E16               	movwf	_NextUSBOut,c
  1782  001B4A                     l4284:
  1783                           
  1784                           ;app_device_cdc_to_uart.c: 157: }
  1785                           ;app_device_cdc_to_uart.c: 159: CDCTxService();
  1786  001B4A  ECE5  F008         	call	_CDCTxService	;wreg free
  1787  001B4E  0012               	return		;funcret
  1788  001B50                     __end_of_APP_DeviceCDCEmulatorTasks:
  1789                           	opt stack 0
  1790                           tblptru	equ	0xFF8
  1791                           prodh	equ	0xFF4
  1792                           prodl	equ	0xFF3
  1793                           intcon	equ	0xFF2
  1794                           postinc0	equ	0xFEE
  1795                           wreg	equ	0xFE8
  1796                           indf2	equ	0xFDF
  1797                           postinc2	equ	0xFDE
  1798                           postdec2	equ	0xFDD
  1799                           fsr2h	equ	0xFDA
  1800                           fsr2l	equ	0xFD9
  1801                           status	equ	0xFD8
  1802                           
  1803 ;; *************** function _putUSBUSART *****************
  1804 ;; Defined at:
  1805 ;;		line 531 in file "../mla/v2017_03_06/framework/usb/src/usb_device_cdc.c"
  1806 ;; Parameters:    Size  Location     Type
  1807 ;;  data            2    0[BANK1 ] PTR unsigned char 
  1808 ;;		 -> USB_Out_Buffer(64), 
  1809 ;;  length          1    2[BANK1 ] unsigned char 
  1810 ;; Auto vars:     Size  Location     Type
  1811 ;;		None
  1812 ;; Return value:  Size  Location     Type
  1813 ;;                  1    wreg      void 
  1814 ;; Registers used:
  1815 ;;		wreg, status,2, status,0
  1816 ;; Tracked objects:
  1817 ;;		On entry : 0/0
  1818 ;;		On exit  : 0/0
  1819 ;;		Unchanged: 0/0
  1820 ;; Data sizes:     COMRAM   BANK0   BANK1   BANK2   BANK3   BANK4   BANK5   BANK6   BANK7
  1821 ;;      Params:         0       0       3       0       0       0       0       0       0
  1822 ;;      Locals:         0       0       0       0       0       0       0       0       0
  1823 ;;      Temps:          0       0       0       0       0       0       0       0       0
  1824 ;;      Totals:         0       0       3       0       0       0       0       0       0
  1825 ;;Total ram usage:        3 bytes
  1826 ;; Hardware stack levels used:    1
  1827 ;; Hardware stack levels required when called:   12
  1828 ;; This function calls:
  1829 ;;		Nothing
  1830 ;; This function is called by:
  1831 ;;		_APP_DeviceCDCEmulatorTasks
  1832 ;; This function uses a non-reentrant model
  1833 ;;
  1834                           
  1835                           	psect	text7
  1836  0024F8                     __ptext7:
  1837                           	opt stack 0
  1838  0024F8                     _putUSBUSART:
  1839                           	opt stack 16
  1840                           
  1841                           ;usb_device_cdc.c: 556: {PIE2bits.USBIE = 0;};
  1842                           
  1843                           ;incstack = 0
  1844  0024F8  9AA0               	bcf	4000,5,c	;volatile
  1845                           
  1846                           ;usb_device_cdc.c: 557: if(cdc_trf_state == 0)
  1847  0024FA  501A               	movf	_cdc_trf_state,w,c
  1848  0024FC  A4D8               	btfss	status,2,c
  1849  0024FE  D00A               	goto	l4164
  1850                           
  1851                           ;usb_device_cdc.c: 558: {
  1852                           ;usb_device_cdc.c: 559: { pCDCSrc.bRam = (uint8_t*)data; cdc_tx_len = length; cdc_mem_ty
      +                          pe = 0x01; cdc_trf_state = 1; };
  1853  002500  C140  F008         	movff	putUSBUSART@data,_pCDCSrc
  1854  002504  C141  F009         	movff	putUSBUSART@data+1,_pCDCSrc+1
  1855  002508  C142  F019         	movff	putUSBUSART@length,_cdc_tx_len
  1856  00250C  0E01               	movlw	1
  1857  00250E  6E18               	movwf	_cdc_mem_type,c
  1858  002510  0E01               	movlw	1
  1859  002512  6E1A               	movwf	_cdc_trf_state,c
  1860  002514                     l4164:
  1861                           
  1862                           ;usb_device_cdc.c: 560: }
  1863                           ;usb_device_cdc.c: 561: {PIE2bits.USBIE = 1;};
  1864  002514  8AA0               	bsf	4000,5,c	;volatile
  1865  002516  0012               	return		;funcret
  1866  002518                     __end_of_putUSBUSART:
  1867                           	opt stack 0
  1868                           tblptru	equ	0xFF8
  1869                           prodh	equ	0xFF4
  1870                           prodl	equ	0xFF3
  1871                           intcon	equ	0xFF2
  1872                           postinc0	equ	0xFEE
  1873                           wreg	equ	0xFE8
  1874                           indf2	equ	0xFDF
  1875                           postinc2	equ	0xFDE
  1876                           postdec2	equ	0xFDD
  1877                           fsr2h	equ	0xFDA
  1878                           fsr2l	equ	0xFD9
  1879                           status	equ	0xFD8
  1880                           
  1881 ;; *************** function _getsUSBUSART *****************
  1882 ;; Defined at:
  1883 ;;		line 460 in file "../mla/v2017_03_06/framework/usb/src/usb_device_cdc.c"
  1884 ;; Parameters:    Size  Location     Type
  1885 ;;  buffer          2   11[BANK1 ] PTR unsigned char 
  1886 ;;		 -> RS232_Out_Data(64), 
  1887 ;;  len             1   13[BANK1 ] unsigned char 
  1888 ;; Auto vars:     Size  Location     Type
  1889 ;;		None
  1890 ;; Return value:  Size  Location     Type
  1891 ;;                  1    wreg      unsigned char 
  1892 ;; Registers used:
  1893 ;;		wreg, fsr1l, fsr1h, fsr2l, fsr2h, status,2, status,0, prodl, prodh, cstack
  1894 ;; Tracked objects:
  1895 ;;		On entry : 0/0
  1896 ;;		On exit  : 0/0
  1897 ;;		Unchanged: 0/0
  1898 ;; Data sizes:     COMRAM   BANK0   BANK1   BANK2   BANK3   BANK4   BANK5   BANK6   BANK7
  1899 ;;      Params:         0       0       3       0       0       0       0       0       0
  1900 ;;      Locals:         0       0       0       0       0       0       0       0       0
  1901 ;;      Temps:          0       0       1       0       0       0       0       0       0
  1902 ;;      Totals:         0       0       4       0       0       0       0       0       0
  1903 ;;Total ram usage:        4 bytes
  1904 ;; Hardware stack levels used:    1
  1905 ;; Hardware stack levels required when called:   13
  1906 ;; This function calls:
  1907 ;;		_USBTransferOnePacket
  1908 ;; This function is called by:
  1909 ;;		_APP_DeviceCDCEmulatorTasks
  1910 ;; This function uses a non-reentrant model
  1911 ;;
  1912                           
  1913                           	psect	text8
  1914  001C14                     __ptext8:
  1915                           	opt stack 0
  1916  001C14                     _getsUSBUSART:
  1917                           	opt stack 15
  1918                           
  1919                           ;usb_device_cdc.c: 462: cdc_rx_len = 0;
  1920                           
  1921                           ;incstack = 0
  1922  001C14  0E00               	movlw	0
  1923  001C16  0100               	movlb	0	; () banked
  1924  001C18  6F88               	movwf	_cdc_rx_len& (0+255),b
  1925                           
  1926                           ; BSR set to: 0
  1927                           ;usb_device_cdc.c: 464: if(!((CDCDataOutHandle != 0x0000) && ((*(volatile uint8_t*)CDCDa
      +                          taOutHandle & 0x80) != 0x00)))
  1928  001C1A  0100               	movlb	0	; () banked
  1929  001C1C  5186               	movf	_CDCDataOutHandle& (0+255),w,b
  1930  001C1E  0100               	movlb	0	; () banked
  1931  001C20  1187               	iorwf	(_CDCDataOutHandle+1)& (0+255),w,b
  1932  001C22  B4D8               	btfsc	status,2,c
  1933  001C24  D007               	goto	l4134
  1934                           
  1935                           ; BSR set to: 0
  1936  001C26  C086  FFD9         	movff	_CDCDataOutHandle,fsr2l
  1937  001C2A  C087  FFDA         	movff	_CDCDataOutHandle+1,fsr2h
  1938  001C2E  0100               	movlb	0	; () banked
  1939  001C30  BEDF               	btfsc	indf2,7,c
  1940  001C32  D04B               	goto	l4148
  1941  001C34                     l4134:
  1942                           
  1943                           ; BSR set to: 0
  1944                           ;usb_device_cdc.c: 465: {
  1945                           ;usb_device_cdc.c: 470: if(len > (((volatile BDT_ENTRY*)CDCDataOutHandle)->CNT))
  1946  001C34  0100               	movlb	0	; () banked
  1947  001C36  EE20 F001          	lfsr	2,1
  1948  001C3A  5186               	movf	_CDCDataOutHandle& (0+255),w,b
  1949  001C3C  26D9               	addwf	fsr2l,f,c
  1950  001C3E  5187               	movf	(_CDCDataOutHandle+1)& (0+255),w,b
  1951  001C40  22DA               	addwfc	fsr2h,f,c
  1952  001C42  0101               	movlb	1	; () banked
  1953  001C44  514D               	movf	getsUSBUSART@len& (0+255),w,b
  1954  001C46  5CDE               	subwf	postinc2,w,c
  1955  001C48  B0D8               	btfsc	status,0,c
  1956  001C4A  D00A               	goto	l4138
  1957                           
  1958                           ; BSR set to: 1
  1959                           ;usb_device_cdc.c: 471: len = (((volatile BDT_ENTRY*)CDCDataOutHandle)->CNT);
  1960  001C4C  0100               	movlb	0	; () banked
  1961  001C4E  EE20 F001          	lfsr	2,1
  1962  001C52  5186               	movf	_CDCDataOutHandle& (0+255),w,b
  1963  001C54  26D9               	addwf	fsr2l,f,c
  1964  001C56  5187               	movf	(_CDCDataOutHandle+1)& (0+255),w,b
  1965  001C58  22DA               	addwfc	fsr2h,f,c
  1966  001C5A  50DF               	movf	indf2,w,c
  1967  001C5C  0101               	movlb	1	; () banked
  1968  001C5E  6F4D               	movwf	getsUSBUSART@len& (0+255),b
  1969  001C60                     l4138:
  1970                           
  1971                           ; BSR set to: 1
  1972                           ;usb_device_cdc.c: 476: for(cdc_rx_len = 0; cdc_rx_len < len; cdc_rx_len++)
  1973  001C60  0E00               	movlw	0
  1974  001C62  0100               	movlb	0	; () banked
  1975  001C64  6F88               	movwf	_cdc_rx_len& (0+255),b
  1976  001C66  D018               	goto	l4144
  1977  001C68                     l4140:
  1978                           
  1979                           ; BSR set to: 0
  1980                           ;usb_device_cdc.c: 477: buffer[cdc_rx_len] = cdc_data_rx[cdc_rx_len];
  1981  001C68  0100               	movlb	0	; () banked
  1982  001C6A  5188               	movf	_cdc_rx_len& (0+255),w,b
  1983  001C6C  0D01               	mullw	1
  1984  001C6E  0E40               	movlw	64
  1985  001C70  24F3               	addwf	prodl,w,c
  1986  001C72  6ED9               	movwf	fsr2l,c
  1987  001C74  0E05               	movlw	5
  1988  001C76  20F4               	addwfc	prodh,w,c
  1989  001C78  6EDA               	movwf	fsr2h,c
  1990  001C7A  0100               	movlb	0	; () banked
  1991  001C7C  5188               	movf	_cdc_rx_len& (0+255),w,b
  1992  001C7E  0D01               	mullw	1
  1993  001C80  50F3               	movf	prodl,w,c
  1994  001C82  0101               	movlb	1	; () banked
  1995  001C84  254B               	addwf	getsUSBUSART@buffer& (0+255),w,b
  1996  001C86  6EE1               	movwf	fsr1l,c
  1997  001C88  50F4               	movf	prodh,w,c
  1998  001C8A  0101               	movlb	1	; () banked
  1999  001C8C  214C               	addwfc	(getsUSBUSART@buffer+1)& (0+255),w,b
  2000  001C8E  6EE2               	movwf	fsr1h,c
  2001  001C90  CFDF FFE7          	movff	indf2,indf1
  2002                           
  2003                           ; BSR set to: 1
  2004  001C94  0100               	movlb	0	; () banked
  2005  001C96  2B88               	incf	_cdc_rx_len& (0+255),f,b
  2006  001C98                     l4144:
  2007                           
  2008                           ; BSR set to: 0
  2009  001C98  0101               	movlb	1	; () banked
  2010  001C9A  514D               	movf	getsUSBUSART@len& (0+255),w,b
  2011  001C9C  0100               	movlb	0	; () banked
  2012  001C9E  5D88               	subwf	_cdc_rx_len& (0+255),w,b
  2013  001CA0  A0D8               	btfss	status,0,c
  2014  001CA2  D7E2               	goto	l4140
  2015                           
  2016                           ; BSR set to: 0
  2017                           ;usb_device_cdc.c: 483: CDCDataOutHandle = USBTransferOnePacket(2,0,(uint8_t*)&cdc_data_
      +                          rx,sizeof(cdc_data_rx));
  2018                           
  2019                           ; BSR set to: 0
  2020  001CA4  0E00               	movlw	0
  2021  001CA6  0101               	movlb	1	; () banked
  2022  001CA8  6F40               	movwf	USBTransferOnePacket@dir& (0+255),b
  2023  001CAA  0E40               	movlw	64
  2024  001CAC  0101               	movlb	1	; () banked
  2025  001CAE  6F41               	movwf	USBTransferOnePacket@data& (0+255),b
  2026  001CB0  0E05               	movlw	5
  2027  001CB2  0101               	movlb	1	; () banked
  2028  001CB4  6F42               	movwf	(USBTransferOnePacket@data+1)& (0+255),b
  2029  001CB6  0E40               	movlw	64
  2030  001CB8  0101               	movlb	1	; () banked
  2031  001CBA  6F43               	movwf	USBTransferOnePacket@len& (0+255),b
  2032  001CBC  0E02               	movlw	2
  2033  001CBE  EC4B  F008         	call	_USBTransferOnePacket
  2034  001CC2  C140  F086         	movff	?_USBTransferOnePacket,_CDCDataOutHandle
  2035  001CC6  C141  F087         	movff	?_USBTransferOnePacket+1,_CDCDataOutHandle+1
  2036  001CCA                     l4148:
  2037                           
  2038                           ;usb_device_cdc.c: 485: }
  2039                           ;usb_device_cdc.c: 487: return cdc_rx_len;
  2040  001CCA  0100               	movlb	0	; () banked
  2041  001CCC  5188               	movf	_cdc_rx_len& (0+255),w,b
  2042  001CCE  0012               	return	
  2043  001CD0                     __end_of_getsUSBUSART:
  2044                           	opt stack 0
  2045                           tblptru	equ	0xFF8
  2046                           prodh	equ	0xFF4
  2047                           prodl	equ	0xFF3
  2048                           intcon	equ	0xFF2
  2049                           postinc0	equ	0xFEE
  2050                           wreg	equ	0xFE8
  2051                           indf1	equ	0xFE7
  2052                           fsr1h	equ	0xFE2
  2053                           fsr1l	equ	0xFE1
  2054                           indf2	equ	0xFDF
  2055                           postinc2	equ	0xFDE
  2056                           postdec2	equ	0xFDD
  2057                           fsr2h	equ	0xFDA
  2058                           fsr2l	equ	0xFD9
  2059                           status	equ	0xFD8
  2060                           
  2061 ;; *************** function _USART_putcUSART *****************
  2062 ;; Defined at:
  2063 ;;		line 86 in file "../mla/v2017_03_06/framework/usb/src/usart.c"
  2064 ;; Parameters:    Size  Location     Type
  2065 ;;  c               1    wreg     unsigned char 
  2066 ;; Auto vars:     Size  Location     Type
  2067 ;;  c               1    0[BANK1 ] unsigned char 
  2068 ;; Return value:  Size  Location     Type
  2069 ;;                  1    wreg      void 
  2070 ;; Registers used:
  2071 ;;		wreg
  2072 ;; Tracked objects:
  2073 ;;		On entry : 0/0
  2074 ;;		On exit  : 0/0
  2075 ;;		Unchanged: 0/0
  2076 ;; Data sizes:     COMRAM   BANK0   BANK1   BANK2   BANK3   BANK4   BANK5   BANK6   BANK7
  2077 ;;      Params:         0       0       0       0       0       0       0       0       0
  2078 ;;      Locals:         0       0       1       0       0       0       0       0       0
  2079 ;;      Temps:          0       0       0       0       0       0       0       0       0
  2080 ;;      Totals:         0       0       1       0       0       0       0       0       0
  2081 ;;Total ram usage:        1 bytes
  2082 ;; Hardware stack levels used:    1
  2083 ;; Hardware stack levels required when called:   12
  2084 ;; This function calls:
  2085 ;;		Nothing
  2086 ;; This function is called by:
  2087 ;;		_APP_DeviceCDCEmulatorTasks
  2088 ;; This function uses a non-reentrant model
  2089 ;;
  2090                           
  2091                           	psect	text9
  2092  00258A                     __ptext9:
  2093                           	opt stack 0
  2094  00258A                     _USART_putcUSART:
  2095                           	opt stack 16
  2096                           
  2097                           ; BSR set to: 0
  2098                           ;incstack = 0
  2099                           ;USART_putcUSART@c stored from wreg
  2100  00258A  0101               	movlb	1	; () banked
  2101  00258C  6F40               	movwf	USART_putcUSART@c& (0+255),b
  2102                           
  2103                           ;usart.c: 88: TXREG = c;
  2104  00258E  C140  FFAD         	movff	USART_putcUSART@c,4013	;volatile
  2105  002592  0012               	return		;funcret
  2106  002594                     __end_of_USART_putcUSART:
  2107                           	opt stack 0
  2108                           tblptru	equ	0xFF8
  2109                           prodh	equ	0xFF4
  2110                           prodl	equ	0xFF3
  2111                           intcon	equ	0xFF2
  2112                           postinc0	equ	0xFEE
  2113                           wreg	equ	0xFE8
  2114                           indf1	equ	0xFE7
  2115                           fsr1h	equ	0xFE2
  2116                           fsr1l	equ	0xFE1
  2117                           indf2	equ	0xFDF
  2118                           postinc2	equ	0xFDE
  2119                           postdec2	equ	0xFDD
  2120                           fsr2h	equ	0xFDA
  2121                           fsr2l	equ	0xFD9
  2122                           status	equ	0xFD8
  2123                           
  2124 ;; *************** function _USART_getcUSART *****************
  2125 ;; Defined at:
  2126 ;;		line 145 in file "../mla/v2017_03_06/framework/usb/src/usart.c"
  2127 ;; Parameters:    Size  Location     Type
  2128 ;;		None
  2129 ;; Auto vars:     Size  Location     Type
  2130 ;;  c               1    0[BANK1 ] unsigned char 
  2131 ;; Return value:  Size  Location     Type
  2132 ;;                  1    wreg      unsigned char 
  2133 ;; Registers used:
  2134 ;;		wreg, status,2
  2135 ;; Tracked objects:
  2136 ;;		On entry : 0/0
  2137 ;;		On exit  : 0/0
  2138 ;;		Unchanged: 0/0
  2139 ;; Data sizes:     COMRAM   BANK0   BANK1   BANK2   BANK3   BANK4   BANK5   BANK6   BANK7
  2140 ;;      Params:         0       0       0       0       0       0       0       0       0
  2141 ;;      Locals:         0       0       1       0       0       0       0       0       0
  2142 ;;      Temps:          0       0       0       0       0       0       0       0       0
  2143 ;;      Totals:         0       0       1       0       0       0       0       0       0
  2144 ;;Total ram usage:        1 bytes
  2145 ;; Hardware stack levels used:    1
  2146 ;; Hardware stack levels required when called:   12
  2147 ;; This function calls:
  2148 ;;		Nothing
  2149 ;; This function is called by:
  2150 ;;		_APP_DeviceCDCEmulatorTasks
  2151 ;; This function uses a non-reentrant model
  2152 ;;
  2153                           
  2154                           	psect	text10
  2155  002536                     __ptext10:
  2156                           	opt stack 0
  2157  002536                     _USART_getcUSART:
  2158                           	opt stack 16
  2159                           
  2160                           ;usart.c: 147: char c;
  2161                           ;usart.c: 149: if (RCSTAbits.OERR)
  2162                           
  2163                           ;incstack = 0
  2164  002536  A2AB               	btfss	4011,1,c	;volatile
  2165  002538  D005               	goto	l700
  2166                           
  2167                           ;usart.c: 150: {
  2168                           ;usart.c: 151: RCSTAbits.CREN = 0;
  2169  00253A  98AB               	bcf	4011,4,c	;volatile
  2170                           
  2171                           ;usart.c: 152: c = RCREG;
  2172  00253C  CFAE F140          	movff	4014,USART_getcUSART@c	;volatile
  2173                           
  2174                           ;usart.c: 153: RCSTAbits.CREN = 1;
  2175  002540  88AB               	bsf	4011,4,c	;volatile
  2176                           
  2177                           ;usart.c: 154: }
  2178  002542  D002               	goto	l4238
  2179  002544                     l700:
  2180                           
  2181                           ;usart.c: 155: else
  2182                           ;usart.c: 156: {
  2183                           ;usart.c: 157: c = RCREG;
  2184  002544  CFAE F140          	movff	4014,USART_getcUSART@c	;volatile
  2185  002548                     l4238:
  2186                           
  2187                           ;usart.c: 158: }
  2188                           ;usart.c: 163: return c;
  2189  002548  0101               	movlb	1	; () banked
  2190  00254A  5140               	movf	USART_getcUSART@c& (0+255),w,b
  2191  00254C  0012               	return	
  2192  00254E                     __end_of_USART_getcUSART:
  2193                           	opt stack 0
  2194                           tblptru	equ	0xFF8
  2195                           prodh	equ	0xFF4
  2196                           prodl	equ	0xFF3
  2197                           intcon	equ	0xFF2
  2198                           postinc0	equ	0xFEE
  2199                           wreg	equ	0xFE8
  2200                           indf1	equ	0xFE7
  2201                           fsr1h	equ	0xFE2
  2202                           fsr1l	equ	0xFE1
  2203                           indf2	equ	0xFDF
  2204                           postinc2	equ	0xFDE
  2205                           postdec2	equ	0xFDD
  2206                           fsr2h	equ	0xFDA
  2207                           fsr2l	equ	0xFD9
  2208                           status	equ	0xFD8
  2209                           
  2210 ;; *************** function _CDCTxService *****************
  2211 ;; Defined at:
  2212 ;;		line 811 in file "../mla/v2017_03_06/framework/usb/src/usb_device_cdc.c"
  2213 ;; Parameters:    Size  Location     Type
  2214 ;;		None
  2215 ;; Auto vars:     Size  Location     Type
  2216 ;;  byte_to_send    1   12[BANK1 ] unsigned char 
  2217 ;;  i               1   11[BANK1 ] unsigned char 
  2218 ;; Return value:  Size  Location     Type
  2219 ;;                  1    wreg      void 
  2220 ;; Registers used:
  2221 ;;		wreg, fsr1l, fsr1h, fsr2l, fsr2h, status,2, status,0, prodl, prodh, cstack
  2222 ;; Tracked objects:
  2223 ;;		On entry : 0/0
  2224 ;;		On exit  : 0/0
  2225 ;;		Unchanged: 0/0
  2226 ;; Data sizes:     COMRAM   BANK0   BANK1   BANK2   BANK3   BANK4   BANK5   BANK6   BANK7
  2227 ;;      Params:         0       0       0       0       0       0       0       0       0
  2228 ;;      Locals:         0       0       2       0       0       0       0       0       0
  2229 ;;      Temps:          0       0       0       0       0       0       0       0       0
  2230 ;;      Totals:         0       0       2       0       0       0       0       0       0
  2231 ;;Total ram usage:        2 bytes
  2232 ;; Hardware stack levels used:    1
  2233 ;; Hardware stack levels required when called:   13
  2234 ;; This function calls:
  2235 ;;		_USBTransferOnePacket
  2236 ;; This function is called by:
  2237 ;;		_APP_DeviceCDCEmulatorTasks
  2238 ;; This function uses a non-reentrant model
  2239 ;;
  2240                           
  2241                           	psect	text11
  2242  0011CA                     __ptext11:
  2243                           	opt stack 0
  2244  0011CA                     _CDCTxService:
  2245                           	opt stack 15
  2246                           
  2247                           ;usb_device_cdc.c: 813: uint8_t byte_to_send;
  2248                           ;usb_device_cdc.c: 814: uint8_t i;
  2249                           ;usb_device_cdc.c: 816: {PIE2bits.USBIE = 0;};
  2250                           
  2251                           ; BSR set to: 1
  2252                           ;incstack = 0
  2253  0011CA  9AA0               	bcf	4000,5,c	;volatile
  2254                           
  2255                           ;usb_device_cdc.c: 818: {};
  2256                           ;usb_device_cdc.c: 820: if(((CDCDataInHandle != 0x0000) && ((*(volatile uint8_t*)CDCData
      +                          InHandle & 0x80) != 0x00)))
  2257  0011CC  500B               	movf	_CDCDataInHandle,w,c
  2258  0011CE  100C               	iorwf	_CDCDataInHandle+1,w,c
  2259  0011D0  B4D8               	btfsc	status,2,c
  2260  0011D2  D008               	goto	l4174
  2261  0011D4  C00B  FFD9         	movff	_CDCDataInHandle,fsr2l
  2262  0011D8  C00C  FFDA         	movff	_CDCDataInHandle+1,fsr2h
  2263  0011DC  AEDF               	btfss	indf2,7,c
  2264  0011DE  D002               	goto	l4174
  2265                           
  2266                           ;usb_device_cdc.c: 821: {
  2267                           ;usb_device_cdc.c: 822: {PIE2bits.USBIE = 1;};
  2268  0011E0  8AA0               	bsf	4000,5,c	;volatile
  2269                           
  2270                           ;usb_device_cdc.c: 823: return;
  2271  0011E2  0012               	return	
  2272  0011E4                     l4174:
  2273                           
  2274                           ;usb_device_cdc.c: 824: }
  2275                           ;usb_device_cdc.c: 831: if(cdc_trf_state == 3)
  2276  0011E4  0E03               	movlw	3
  2277  0011E6  181A               	xorwf	_cdc_trf_state,w,c
  2278  0011E8  A4D8               	btfss	status,2,c
  2279  0011EA  D002               	goto	l597
  2280                           
  2281                           ;usb_device_cdc.c: 832: cdc_trf_state = 0;
  2282  0011EC  0E00               	movlw	0
  2283  0011EE  6E1A               	movwf	_cdc_trf_state,c
  2284  0011F0                     l597:
  2285                           
  2286                           ;usb_device_cdc.c: 837: if(cdc_trf_state == 0)
  2287  0011F0  501A               	movf	_cdc_trf_state,w,c
  2288  0011F2  A4D8               	btfss	status,2,c
  2289  0011F4  D002               	goto	l4180
  2290                           
  2291                           ;usb_device_cdc.c: 838: {
  2292                           ;usb_device_cdc.c: 839: {PIE2bits.USBIE = 1;};
  2293  0011F6  8AA0               	bsf	4000,5,c	;volatile
  2294                           
  2295                           ;usb_device_cdc.c: 840: return;
  2296  0011F8  0012               	return	
  2297  0011FA                     l4180:
  2298                           
  2299                           ;usb_device_cdc.c: 841: }
  2300                           ;usb_device_cdc.c: 846: if(cdc_trf_state == 2)
  2301  0011FA  0E02               	movlw	2
  2302  0011FC  181A               	xorwf	_cdc_trf_state,w,c
  2303  0011FE  A4D8               	btfss	status,2,c
  2304  001200  D016               	goto	l4186
  2305                           
  2306                           ;usb_device_cdc.c: 847: {
  2307                           ;usb_device_cdc.c: 848: CDCDataInHandle = USBTransferOnePacket(2,1,(0),0);
  2308  001202  0E01               	movlw	1
  2309  001204  0101               	movlb	1	; () banked
  2310  001206  6F40               	movwf	USBTransferOnePacket@dir& (0+255),b
  2311  001208  0E00               	movlw	0
  2312  00120A  0101               	movlb	1	; () banked
  2313  00120C  6F41               	movwf	USBTransferOnePacket@data& (0+255),b
  2314  00120E  0E00               	movlw	0
  2315  001210  0101               	movlb	1	; () banked
  2316  001212  6F42               	movwf	(USBTransferOnePacket@data+1)& (0+255),b
  2317  001214  0E00               	movlw	0
  2318  001216  0101               	movlb	1	; () banked
  2319  001218  6F43               	movwf	USBTransferOnePacket@len& (0+255),b
  2320  00121A  0E02               	movlw	2
  2321  00121C  EC4B  F008         	call	_USBTransferOnePacket
  2322  001220  C140  F00B         	movff	?_USBTransferOnePacket,_CDCDataInHandle
  2323  001224  C141  F00C         	movff	?_USBTransferOnePacket+1,_CDCDataInHandle+1
  2324                           
  2325                           ;usb_device_cdc.c: 850: cdc_trf_state = 3;
  2326  001228  0E03               	movlw	3
  2327  00122A  6E1A               	movwf	_cdc_trf_state,c
  2328                           
  2329                           ;usb_device_cdc.c: 851: }
  2330  00122C  D064               	goto	l4230
  2331  00122E                     l4186:
  2332                           
  2333                           ;usb_device_cdc.c: 852: else if(cdc_trf_state == 1)
  2334  00122E  041A               	decf	_cdc_trf_state,w,c
  2335  001230  A4D8               	btfss	status,2,c
  2336  001232  D061               	goto	l4230
  2337                           
  2338                           ;usb_device_cdc.c: 853: {
  2339                           ;usb_device_cdc.c: 857: if(cdc_tx_len > sizeof(cdc_data_tx))
  2340  001234  0E40               	movlw	64
  2341  001236  6419               	cpfsgt	_cdc_tx_len,c
  2342  001238  D004               	goto	l602
  2343                           
  2344                           ;usb_device_cdc.c: 858: byte_to_send = sizeof(cdc_data_tx);
  2345  00123A  0E40               	movlw	64
  2346  00123C  0101               	movlb	1	; () banked
  2347  00123E  6F4C               	movwf	CDCTxService@byte_to_send& (0+255),b
  2348  001240  D002               	goto	l4192
  2349  001242                     l602:
  2350                           
  2351                           ;usb_device_cdc.c: 859: else
  2352                           ;usb_device_cdc.c: 860: byte_to_send = cdc_tx_len;
  2353  001242  C019  F14C         	movff	_cdc_tx_len,CDCTxService@byte_to_send
  2354  001246                     l4192:
  2355                           
  2356                           ;usb_device_cdc.c: 865: cdc_tx_len = cdc_tx_len - byte_to_send;
  2357  001246  0101               	movlb	1	; () banked
  2358  001248  514C               	movf	CDCTxService@byte_to_send& (0+255),w,b
  2359  00124A  0800               	sublw	0
  2360  00124C  2419               	addwf	_cdc_tx_len,w,c
  2361  00124E  6E19               	movwf	_cdc_tx_len,c
  2362                           
  2363                           ;usb_device_cdc.c: 867: pCDCDst.bRam = (uint8_t*)&cdc_data_tx;
  2364  001250  0E00               	movlw	0
  2365  001252  6E05               	movwf	_pCDCDst,c
  2366  001254  0E05               	movlw	5
  2367  001256  6E06               	movwf	_pCDCDst+1,c
  2368                           
  2369                           ; BSR set to: 1
  2370                           ;usb_device_cdc.c: 869: i = byte_to_send;
  2371  001258  C14C  F14B         	movff	CDCTxService@byte_to_send,CDCTxService@i
  2372                           
  2373                           ; BSR set to: 1
  2374                           ;usb_device_cdc.c: 870: if(cdc_mem_type == 0x00)
  2375  00125C  5018               	movf	_cdc_mem_type,w,c
  2376  00125E  B4D8               	btfsc	status,2,c
  2377  001260  D011               	goto	l4208
  2378  001262  D026               	goto	l4218
  2379  001264                     l4200:
  2380                           
  2381                           ; BSR set to: 1
  2382                           ;usb_device_cdc.c: 873: {
  2383                           ;usb_device_cdc.c: 874: *pCDCDst.bRam = *pCDCSrc.bRom;
  2384  001264  C008  FFD9         	movff	_pCDCSrc,fsr2l
  2385  001268  C009  FFDA         	movff	_pCDCSrc+1,fsr2h
  2386  00126C  C005  FFE1         	movff	_pCDCDst,fsr1l
  2387  001270  C006  FFE2         	movff	_pCDCDst+1,fsr1h
  2388  001274  CFDF FFE7          	movff	indf2,indf1
  2389                           
  2390                           ; BSR set to: 1
  2391                           ;usb_device_cdc.c: 875: pCDCDst.bRam++;
  2392  001278  4A05               	infsnz	_pCDCDst,f,c
  2393  00127A  2A06               	incf	_pCDCDst+1,f,c
  2394                           
  2395                           ; BSR set to: 1
  2396                           ;usb_device_cdc.c: 876: pCDCSrc.bRom++;
  2397  00127C  4A08               	infsnz	_pCDCSrc,f,c
  2398  00127E  2A09               	incf	_pCDCSrc+1,f,c
  2399                           
  2400                           ; BSR set to: 1
  2401                           ;usb_device_cdc.c: 877: i--;
  2402  001280  0101               	movlb	1	; () banked
  2403  001282  074B               	decf	CDCTxService@i& (0+255),f,b
  2404  001284                     l4208:
  2405                           
  2406                           ; BSR set to: 1
  2407  001284  0101               	movlb	1	; () banked
  2408  001286  514B               	movf	CDCTxService@i& (0+255),w,b
  2409  001288  0101               	movlb	1	; () banked
  2410  00128A  B4D8               	btfsc	status,2,c
  2411  00128C  D016               	goto	l4220
  2412  00128E  D7EA               	goto	l4200
  2413  001290                     l4210:
  2414                           
  2415                           ; BSR set to: 1
  2416                           ;usb_device_cdc.c: 883: {
  2417                           ;usb_device_cdc.c: 884: *pCDCDst.bRam = *pCDCSrc.bRam;
  2418  001290  C008  FFD9         	movff	_pCDCSrc,fsr2l
  2419  001294  C009  FFDA         	movff	_pCDCSrc+1,fsr2h
  2420  001298  C005  FFE1         	movff	_pCDCDst,fsr1l
  2421  00129C  C006  FFE2         	movff	_pCDCDst+1,fsr1h
  2422  0012A0  CFDF FFE7          	movff	indf2,indf1
  2423                           
  2424                           ; BSR set to: 1
  2425                           ;usb_device_cdc.c: 885: pCDCDst.bRam++;
  2426  0012A4  4A05               	infsnz	_pCDCDst,f,c
  2427  0012A6  2A06               	incf	_pCDCDst+1,f,c
  2428                           
  2429                           ; BSR set to: 1
  2430                           ;usb_device_cdc.c: 886: pCDCSrc.bRam++;
  2431  0012A8  4A08               	infsnz	_pCDCSrc,f,c
  2432  0012AA  2A09               	incf	_pCDCSrc+1,f,c
  2433                           
  2434                           ; BSR set to: 1
  2435                           ;usb_device_cdc.c: 887: i--;
  2436  0012AC  0101               	movlb	1	; () banked
  2437  0012AE  074B               	decf	CDCTxService@i& (0+255),f,b
  2438  0012B0                     l4218:
  2439                           
  2440                           ; BSR set to: 1
  2441  0012B0  0101               	movlb	1	; () banked
  2442  0012B2  514B               	movf	CDCTxService@i& (0+255),w,b
  2443  0012B4  0101               	movlb	1	; () banked
  2444  0012B6  A4D8               	btfss	status,2,c
  2445  0012B8  D7EB               	goto	l4210
  2446  0012BA                     l4220:
  2447                           
  2448                           ; BSR set to: 1
  2449                           ;usb_device_cdc.c: 888: }
  2450                           ;usb_device_cdc.c: 889: }
  2451                           ;usb_device_cdc.c: 895: if(cdc_tx_len == 0)
  2452  0012BA  5019               	movf	_cdc_tx_len,w,c
  2453  0012BC  A4D8               	btfss	status,2,c
  2454  0012BE  D009               	goto	l4228
  2455                           
  2456                           ; BSR set to: 1
  2457                           ;usb_device_cdc.c: 896: {
  2458                           ;usb_device_cdc.c: 897: if(byte_to_send == 64)
  2459  0012C0  0E40               	movlw	64
  2460  0012C2  0101               	movlb	1	; () banked
  2461  0012C4  194C               	xorwf	CDCTxService@byte_to_send& (0+255),w,b
  2462  0012C6  A4D8               	btfss	status,2,c
  2463  0012C8  D002               	goto	l4226
  2464                           
  2465                           ; BSR set to: 1
  2466                           ;usb_device_cdc.c: 898: cdc_trf_state = 2;
  2467  0012CA  0E02               	movlw	2
  2468  0012CC  D001               	goto	L1
  2469  0012CE                     l4226:
  2470                           
  2471                           ; BSR set to: 1
  2472                           ;usb_device_cdc.c: 899: else
  2473                           ;usb_device_cdc.c: 900: cdc_trf_state = 3;
  2474  0012CE  0E03               	movlw	3
  2475  0012D0                     L1:
  2476  0012D0  6E1A               	movwf	_cdc_trf_state,c
  2477  0012D2                     l4228:
  2478                           
  2479                           ; BSR set to: 1
  2480                           ;usb_device_cdc.c: 901: }
  2481                           ;usb_device_cdc.c: 902: CDCDataInHandle = USBTransferOnePacket(2,1,(uint8_t*)&cdc_data_t
      +                          x,byte_to_send);
  2482  0012D2  0E01               	movlw	1
  2483  0012D4  0101               	movlb	1	; () banked
  2484  0012D6  6F40               	movwf	USBTransferOnePacket@dir& (0+255),b
  2485  0012D8  0E00               	movlw	0
  2486  0012DA  0101               	movlb	1	; () banked
  2487  0012DC  6F41               	movwf	USBTransferOnePacket@data& (0+255),b
  2488  0012DE  0E05               	movlw	5
  2489  0012E0  0101               	movlb	1	; () banked
  2490  0012E2  6F42               	movwf	(USBTransferOnePacket@data+1)& (0+255),b
  2491  0012E4  C14C  F143         	movff	CDCTxService@byte_to_send,USBTransferOnePacket@len
  2492  0012E8  0E02               	movlw	2
  2493  0012EA  EC4B  F008         	call	_USBTransferOnePacket
  2494  0012EE  C140  F00B         	movff	?_USBTransferOnePacket,_CDCDataInHandle
  2495  0012F2  C141  F00C         	movff	?_USBTransferOnePacket+1,_CDCDataInHandle+1
  2496  0012F6                     l4230:
  2497                           
  2498                           ;usb_device_cdc.c: 904: }
  2499                           ;usb_device_cdc.c: 906: {PIE2bits.USBIE = 1;};
  2500  0012F6  8AA0               	bsf	4000,5,c	;volatile
  2501  0012F8  0012               	return		;funcret
  2502  0012FA                     __end_of_CDCTxService:
  2503                           	opt stack 0
  2504                           tblptru	equ	0xFF8
  2505                           prodh	equ	0xFF4
  2506                           prodl	equ	0xFF3
  2507                           intcon	equ	0xFF2
  2508                           postinc0	equ	0xFEE
  2509                           wreg	equ	0xFE8
  2510                           indf1	equ	0xFE7
  2511                           fsr1h	equ	0xFE2
  2512                           fsr1l	equ	0xFE1
  2513                           indf2	equ	0xFDF
  2514                           postinc2	equ	0xFDE
  2515                           postdec2	equ	0xFDD
  2516                           fsr2h	equ	0xFDA
  2517                           fsr2l	equ	0xFD9
  2518                           status	equ	0xFD8
  2519                           
  2520 ;; *************** function _USBTransferOnePacket *****************
  2521 ;; Defined at:
  2522 ;;		line 995 in file "../mla/v2017_03_06/framework/usb/src/usb_device.c"
  2523 ;; Parameters:    Size  Location     Type
  2524 ;;  ep              1    wreg     unsigned char 
  2525 ;;  dir             1    0[BANK1 ] unsigned char 
  2526 ;;  data            2    1[BANK1 ] PTR unsigned char 
  2527 ;;		 -> cdc_data_tx(64), cdc_data_rx(64), NULL(0), 
  2528 ;;  len             1    3[BANK1 ] unsigned char 
  2529 ;; Auto vars:     Size  Location     Type
  2530 ;;  ep              1    8[BANK1 ] unsigned char 
  2531 ;;  handle          2    9[BANK1 ] PTR volatile struct __BD
  2532 ;;		 -> RAM(2047), NULL(0), BDT(48), 
  2533 ;; Return value:  Size  Location     Type
  2534 ;;                  2    0[BANK1 ] PTR void 
  2535 ;; Registers used:
  2536 ;;		wreg, fsr2l, fsr2h, status,2, status,0, prodl, prodh
  2537 ;; Tracked objects:
  2538 ;;		On entry : 0/0
  2539 ;;		On exit  : 0/0
  2540 ;;		Unchanged: 0/0
  2541 ;; Data sizes:     COMRAM   BANK0   BANK1   BANK2   BANK3   BANK4   BANK5   BANK6   BANK7
  2542 ;;      Params:         0       0       4       0       0       0       0       0       0
  2543 ;;      Locals:         0       0       3       0       0       0       0       0       0
  2544 ;;      Temps:          0       0       4       0       0       0       0       0       0
  2545 ;;      Totals:         0       0      11       0       0       0       0       0       0
  2546 ;;Total ram usage:       11 bytes
  2547 ;; Hardware stack levels used:    1
  2548 ;; Hardware stack levels required when called:   12
  2549 ;; This function calls:
  2550 ;;		Nothing
  2551 ;; This function is called by:
  2552 ;;		_getsUSBUSART
  2553 ;;		_CDCTxService
  2554 ;;		_USBCDCEventHandler
  2555 ;; This function uses a non-reentrant model
  2556 ;;
  2557                           
  2558                           	psect	text12
  2559  001096                     __ptext12:
  2560                           	opt stack 0
  2561  001096                     _USBTransferOnePacket:
  2562                           	opt stack 15
  2563                           
  2564                           ;incstack = 0
  2565                           ;USBTransferOnePacket@ep stored from wreg
  2566  001096  0101               	movlb	1	; () banked
  2567  001098  6F48               	movwf	USBTransferOnePacket@ep& (0+255),b
  2568                           
  2569                           ;usb_device.c: 997: volatile BDT_ENTRY* handle;
  2570                           ;usb_device.c: 1000: if(dir != 0)
  2571  00109A  0101               	movlb	1	; () banked
  2572  00109C  5140               	movf	USBTransferOnePacket@dir& (0+255),w,b
  2573  00109E  0101               	movlb	1	; () banked
  2574  0010A0  B4D8               	btfsc	status,2,c
  2575  0010A2  D008               	goto	l4102
  2576                           
  2577                           ; BSR set to: 1
  2578                           ;usb_device.c: 1001: {
  2579                           ;usb_device.c: 1003: handle = pBDTEntryIn[ep];
  2580  0010A4  0101               	movlb	1	; () banked
  2581  0010A6  5148               	movf	USBTransferOnePacket@ep& (0+255),w,b
  2582  0010A8  0D02               	mullw	2
  2583  0010AA  0E6E               	movlw	low _pBDTEntryIn
  2584  0010AC  24F3               	addwf	prodl,w,c
  2585  0010AE  6ED9               	movwf	fsr2l,c
  2586  0010B0  0E00               	movlw	high _pBDTEntryIn
  2587  0010B2  D007               	goto	L2
  2588  0010B4                     l4102:
  2589                           
  2590                           ; BSR set to: 1
  2591                           ;usb_device.c: 1005: else
  2592                           ;usb_device.c: 1006: {
  2593                           ;usb_device.c: 1008: handle = pBDTEntryOut[ep];
  2594  0010B4  0101               	movlb	1	; () banked
  2595  0010B6  5148               	movf	USBTransferOnePacket@ep& (0+255),w,b
  2596  0010B8  0D02               	mullw	2
  2597  0010BA  0E74               	movlw	low _pBDTEntryOut
  2598  0010BC  24F3               	addwf	prodl,w,c
  2599  0010BE  6ED9               	movwf	fsr2l,c
  2600  0010C0  0E00               	movlw	high _pBDTEntryOut
  2601  0010C2                     L2:
  2602  0010C2  20F4               	addwfc	prodh,w,c
  2603  0010C4  6EDA               	movwf	fsr2h,c
  2604  0010C6  CFDE F149          	movff	postinc2,USBTransferOnePacket@handle
  2605  0010CA  CFDD F14A          	movff	postdec2,USBTransferOnePacket@handle+1
  2606                           
  2607                           ; BSR set to: 1
  2608                           ;usb_device.c: 1009: }
  2609                           ;usb_device.c: 1013: if(handle == 0)
  2610                           
  2611                           ; BSR set to: 1
  2612  0010CE  0101               	movlb	1	; () banked
  2613  0010D0  5149               	movf	USBTransferOnePacket@handle& (0+255),w,b
  2614  0010D2  0101               	movlb	1	; () banked
  2615  0010D4  114A               	iorwf	(USBTransferOnePacket@handle+1)& (0+255),w,b
  2616  0010D6  A4D8               	btfss	status,2,c
  2617  0010D8  D007               	goto	l4110
  2618                           
  2619                           ; BSR set to: 1
  2620                           ;usb_device.c: 1014: {
  2621                           ;usb_device.c: 1015: return 0;
  2622  0010DA  0E00               	movlw	0
  2623  0010DC  0101               	movlb	1	; () banked
  2624  0010DE  6F40               	movwf	?_USBTransferOnePacket& (0+255),b
  2625  0010E0  0E00               	movlw	0
  2626  0010E2  0101               	movlb	1	; () banked
  2627  0010E4  6F41               	movwf	(?_USBTransferOnePacket+1)& (0+255),b
  2628                           
  2629                           ; BSR set to: 1
  2630  0010E6  0012               	return	
  2631  0010E8                     l4110:
  2632                           
  2633                           ; BSR set to: 1
  2634                           ;usb_device.c: 1016: }
  2635                           ;usb_device.c: 1029: handle->ADR = ((uint16_t)(data));
  2636  0010E8  0101               	movlb	1	; () banked
  2637  0010EA  EE20 F002          	lfsr	2,2
  2638  0010EE  5149               	movf	USBTransferOnePacket@handle& (0+255),w,b
  2639  0010F0  26D9               	addwf	fsr2l,f,c
  2640  0010F2  514A               	movf	(USBTransferOnePacket@handle+1)& (0+255),w,b
  2641  0010F4  22DA               	addwfc	fsr2h,f,c
  2642  0010F6  C141  FFDE         	movff	USBTransferOnePacket@data,postinc2
  2643  0010FA  C142  FFDD         	movff	USBTransferOnePacket@data+1,postdec2
  2644                           
  2645                           ;usb_device.c: 1030: handle->CNT = len;
  2646  0010FE  0101               	movlb	1	; () banked
  2647  001100  EE20 F001          	lfsr	2,1
  2648  001104  5149               	movf	USBTransferOnePacket@handle& (0+255),w,b
  2649  001106  26D9               	addwf	fsr2l,f,c
  2650  001108  514A               	movf	(USBTransferOnePacket@handle+1)& (0+255),w,b
  2651  00110A  22DA               	addwfc	fsr2h,f,c
  2652  00110C  C143  FFDF         	movff	USBTransferOnePacket@len,indf2
  2653                           
  2654                           ; BSR set to: 1
  2655                           ;usb_device.c: 1031: handle->STAT.Val &= 0x40;
  2656  001110  C149  FFD9         	movff	USBTransferOnePacket@handle,fsr2l
  2657  001114  C14A  FFDA         	movff	USBTransferOnePacket@handle+1,fsr2h
  2658  001118  0E40               	movlw	64
  2659  00111A  16DF               	andwf	indf2,f,c
  2660                           
  2661                           ; BSR set to: 1
  2662                           ;usb_device.c: 1032: handle->STAT.Val |= (0x08 & 0x08);
  2663  00111C  C149  FFD9         	movff	USBTransferOnePacket@handle,fsr2l
  2664  001120  C14A  FFDA         	movff	USBTransferOnePacket@handle+1,fsr2h
  2665  001124  0E00               	movlw	0
  2666  001126  86DB               	bsf	plusw2,3,c
  2667                           
  2668                           ; BSR set to: 1
  2669                           ;usb_device.c: 1033: handle->STAT.Val |= 0x80;
  2670  001128  C149  FFD9         	movff	USBTransferOnePacket@handle,fsr2l
  2671  00112C  C14A  FFDA         	movff	USBTransferOnePacket@handle+1,fsr2h
  2672  001130  0E00               	movlw	0
  2673  001132  8EDB               	bsf	plusw2,7,c
  2674                           
  2675                           ; BSR set to: 1
  2676                           ;usb_device.c: 1036: if(dir != 0)
  2677  001134  0101               	movlb	1	; () banked
  2678  001136  5140               	movf	USBTransferOnePacket@dir& (0+255),w,b
  2679  001138  0101               	movlb	1	; () banked
  2680  00113A  B4D8               	btfsc	status,2,c
  2681  00113C  D01E               	goto	l4122
  2682                           
  2683                           ; BSR set to: 1
  2684                           ;usb_device.c: 1037: {
  2685                           ;usb_device.c: 1039: pBDTEntryIn[ep] = (BDT_ENTRY*)(((uintptr_t)pBDTEntryIn[ep]) ^ 0x000
      +                          4);
  2686  00113E  0101               	movlb	1	; () banked
  2687  001140  5148               	movf	USBTransferOnePacket@ep& (0+255),w,b
  2688  001142  0D02               	mullw	2
  2689  001144  0E6E               	movlw	low _pBDTEntryIn
  2690  001146  24F3               	addwf	prodl,w,c
  2691  001148  6ED9               	movwf	fsr2l,c
  2692  00114A  0E00               	movlw	high _pBDTEntryIn
  2693  00114C  20F4               	addwfc	prodh,w,c
  2694  00114E  6EDA               	movwf	fsr2h,c
  2695  001150  CFDE F144          	movff	postinc2,??_USBTransferOnePacket
  2696  001154  CFDD F145          	movff	postdec2,??_USBTransferOnePacket+1
  2697  001158  0E04               	movlw	4
  2698  00115A  0101               	movlb	1	; () banked
  2699  00115C  1944               	xorwf	??_USBTransferOnePacket& (0+255),w,b
  2700  00115E  0101               	movlb	1	; () banked
  2701  001160  6F46               	movwf	(??_USBTransferOnePacket+2)& (0+255),b
  2702  001162  0101               	movlb	1	; () banked
  2703  001164  5145               	movf	(??_USBTransferOnePacket+1)& (0+255),w,b
  2704  001166  0101               	movlb	1	; () banked
  2705  001168  6F47               	movwf	(??_USBTransferOnePacket+3)& (0+255),b
  2706  00116A  0101               	movlb	1	; () banked
  2707  00116C  5148               	movf	USBTransferOnePacket@ep& (0+255),w,b
  2708  00116E  0D02               	mullw	2
  2709  001170  0E6E               	movlw	low _pBDTEntryIn
  2710  001172  24F3               	addwf	prodl,w,c
  2711  001174  6ED9               	movwf	fsr2l,c
  2712  001176  0E00               	movlw	high _pBDTEntryIn
  2713  001178  D01D               	goto	L3
  2714  00117A                     l4122:
  2715                           
  2716                           ; BSR set to: 1
  2717                           ;usb_device.c: 1041: else
  2718                           ;usb_device.c: 1042: {
  2719                           ;usb_device.c: 1044: pBDTEntryOut[ep] = (BDT_ENTRY*)(((uintptr_t)pBDTEntryOut[ep]) ^ 0x0
      +                          004);
  2720  00117A  0101               	movlb	1	; () banked
  2721  00117C  5148               	movf	USBTransferOnePacket@ep& (0+255),w,b
  2722  00117E  0D02               	mullw	2
  2723  001180  0E74               	movlw	low _pBDTEntryOut
  2724  001182  24F3               	addwf	prodl,w,c
  2725  001184  6ED9               	movwf	fsr2l,c
  2726  001186  0E00               	movlw	high _pBDTEntryOut
  2727  001188  20F4               	addwfc	prodh,w,c
  2728  00118A  6EDA               	movwf	fsr2h,c
  2729  00118C  CFDE F144          	movff	postinc2,??_USBTransferOnePacket
  2730  001190  CFDD F145          	movff	postdec2,??_USBTransferOnePacket+1
  2731  001194  0E04               	movlw	4
  2732  001196  0101               	movlb	1	; () banked
  2733  001198  1944               	xorwf	??_USBTransferOnePacket& (0+255),w,b
  2734  00119A  0101               	movlb	1	; () banked
  2735  00119C  6F46               	movwf	(??_USBTransferOnePacket+2)& (0+255),b
  2736  00119E  0101               	movlb	1	; () banked
  2737  0011A0  5145               	movf	(??_USBTransferOnePacket+1)& (0+255),w,b
  2738  0011A2  0101               	movlb	1	; () banked
  2739  0011A4  6F47               	movwf	(??_USBTransferOnePacket+3)& (0+255),b
  2740  0011A6  0101               	movlb	1	; () banked
  2741  0011A8  5148               	movf	USBTransferOnePacket@ep& (0+255),w,b
  2742  0011AA  0D02               	mullw	2
  2743  0011AC  0E74               	movlw	low _pBDTEntryOut
  2744  0011AE  24F3               	addwf	prodl,w,c
  2745  0011B0  6ED9               	movwf	fsr2l,c
  2746  0011B2  0E00               	movlw	high _pBDTEntryOut
  2747  0011B4                     L3:
  2748  0011B4  20F4               	addwfc	prodh,w,c
  2749  0011B6  6EDA               	movwf	fsr2h,c
  2750  0011B8  C146  FFDE         	movff	??_USBTransferOnePacket+2,postinc2
  2751  0011BC  C147  FFDD         	movff	??_USBTransferOnePacket+3,postdec2
  2752                           
  2753                           ; BSR set to: 1
  2754                           ;usb_device.c: 1045: }
  2755                           ;usb_device.c: 1046: return (void*)handle;
  2756                           
  2757                           ; BSR set to: 1
  2758  0011C0  C149  F140         	movff	USBTransferOnePacket@handle,?_USBTransferOnePacket
  2759  0011C4  C14A  F141         	movff	USBTransferOnePacket@handle+1,?_USBTransferOnePacket+1
  2760  0011C8  0012               	return	
  2761  0011CA                     __end_of_USBTransferOnePacket:
  2762                           	opt stack 0
  2763                           tblptru	equ	0xFF8
  2764                           prodh	equ	0xFF4
  2765                           prodl	equ	0xFF3
  2766                           intcon	equ	0xFF2
  2767                           postinc0	equ	0xFEE
  2768                           wreg	equ	0xFE8
  2769                           indf1	equ	0xFE7
  2770                           fsr1h	equ	0xFE2
  2771                           fsr1l	equ	0xFE1
  2772                           indf2	equ	0xFDF
  2773                           postinc2	equ	0xFDE
  2774                           postdec2	equ	0xFDD
  2775                           plusw2	equ	0xFDB
  2776                           fsr2h	equ	0xFDA
  2777                           fsr2l	equ	0xFD9
  2778                           status	equ	0xFD8
  2779                           
  2780 ;; *************** function _SYS_InterruptLow *****************
  2781 ;; Defined at:
  2782 ;;		line 15 in file "system.c"
  2783 ;; Parameters:    Size  Location     Type
  2784 ;;		None
  2785 ;; Auto vars:     Size  Location     Type
  2786 ;;		None
  2787 ;; Return value:  Size  Location     Type
  2788 ;;                  1    wreg      void 
  2789 ;; Registers used:
  2790 ;;		None
  2791 ;; Tracked objects:
  2792 ;;		On entry : 0/0
  2793 ;;		On exit  : 0/0
  2794 ;;		Unchanged: 0/0
  2795 ;; Data sizes:     COMRAM   BANK0   BANK1   BANK2   BANK3   BANK4   BANK5   BANK6   BANK7
  2796 ;;      Params:         0       0       0       0       0       0       0       0       0
  2797 ;;      Locals:         0       0       0       0       0       0       0       0       0
  2798 ;;      Temps:          0      17       0       0       0       0       0       0       0
  2799 ;;      Totals:         0      17       0       0       0       0       0       0       0
  2800 ;;Total ram usage:       17 bytes
  2801 ;; Hardware stack levels used:    1
  2802 ;; Hardware stack levels required when called:   11
  2803 ;; This function calls:
  2804 ;;		Nothing
  2805 ;; This function is called by:
  2806 ;;		Interrupt level 1
  2807 ;; This function uses a non-reentrant model
  2808 ;;
  2809                           
  2810                           	psect	intcodelo
  2811  000018                     __pintcodelo:
  2812                           	opt stack 0
  2813  000018                     _SYS_InterruptLow:
  2814                           	opt stack 15
  2815                           
  2816                           ; BSR set to: 1
  2817                           ;incstack = 0
  2818  000018  8058               	bsf	btemp,0,c	;set compiler interrupt flag (level 1)
  2819  00001A  CFD8 F0E2          	movff	status,??_SYS_InterruptLow
  2820  00001E  CFE8 F0E3          	movff	wreg,??_SYS_InterruptLow+1
  2821  000022  CFE0 F0E4          	movff	bsr,??_SYS_InterruptLow+2
  2822  000026  CFFA F0E5          	movff	pclath,??_SYS_InterruptLow+3
  2823  00002A  CFFB F0E6          	movff	pclatu,??_SYS_InterruptLow+4
  2824  00002E  CFE9 F0E7          	movff	fsr0l,??_SYS_InterruptLow+5
  2825  000032  CFEA F0E8          	movff	fsr0h,??_SYS_InterruptLow+6
  2826  000036  CFE1 F0E9          	movff	fsr1l,??_SYS_InterruptLow+7
  2827  00003A  CFE2 F0EA          	movff	fsr1h,??_SYS_InterruptLow+8
  2828  00003E  CFD9 F0EB          	movff	fsr2l,??_SYS_InterruptLow+9
  2829  000042  CFDA F0EC          	movff	fsr2h,??_SYS_InterruptLow+10
  2830  000046  CFF3 F0ED          	movff	prodl,??_SYS_InterruptLow+11
  2831  00004A  CFF4 F0EE          	movff	prodh,??_SYS_InterruptLow+12
  2832  00004E  CFF6 F0EF          	movff	tblptrl,??_SYS_InterruptLow+13
  2833  000052  CFF7 F0F0          	movff	tblptrh,??_SYS_InterruptLow+14
  2834  000056  CFF8 F0F1          	movff	tblptru,??_SYS_InterruptLow+15
  2835  00005A  CFF5 F0F2          	movff	tablat,??_SYS_InterruptLow+16
  2836  00005E  C0F2  FFF5         	movff	??_SYS_InterruptLow+16,tablat
  2837  000062  C0F1  FFF8         	movff	??_SYS_InterruptLow+15,tblptru
  2838  000066  C0F0  FFF7         	movff	??_SYS_InterruptLow+14,tblptrh
  2839  00006A  C0EF  FFF6         	movff	??_SYS_InterruptLow+13,tblptrl
  2840  00006E  C0EE  FFF4         	movff	??_SYS_InterruptLow+12,prodh
  2841  000072  C0ED  FFF3         	movff	??_SYS_InterruptLow+11,prodl
  2842  000076  C0EC  FFDA         	movff	??_SYS_InterruptLow+10,fsr2h
  2843  00007A  C0EB  FFD9         	movff	??_SYS_InterruptLow+9,fsr2l
  2844  00007E  C0EA  FFE2         	movff	??_SYS_InterruptLow+8,fsr1h
  2845  000082  C0E9  FFE1         	movff	??_SYS_InterruptLow+7,fsr1l
  2846  000086  C0E8  FFEA         	movff	??_SYS_InterruptLow+6,fsr0h
  2847  00008A  C0E7  FFE9         	movff	??_SYS_InterruptLow+5,fsr0l
  2848  00008E  C0E6  FFFB         	movff	??_SYS_InterruptLow+4,pclatu
  2849  000092  C0E5  FFFA         	movff	??_SYS_InterruptLow+3,pclath
  2850  000096  C0E4  FFE0         	movff	??_SYS_InterruptLow+2,bsr
  2851  00009A  C0E3  FFE8         	movff	??_SYS_InterruptLow+1,wreg
  2852  00009E  C0E2  FFD8         	movff	??_SYS_InterruptLow,status
  2853  0000A2  9058               	bcf	btemp,0,c	;clear compiler interrupt flag (level 1)
  2854  0000A4  0010               	retfie	
  2855  0000A6                     __end_of_SYS_InterruptLow:
  2856                           	opt stack 0
  2857                           pclatu	equ	0xFFB
  2858                           pclath	equ	0xFFA
  2859                           tblptru	equ	0xFF8
  2860                           tblptrh	equ	0xFF7
  2861                           tblptrl	equ	0xFF6
  2862                           tablat	equ	0xFF5
  2863                           prodh	equ	0xFF4
  2864                           prodl	equ	0xFF3
  2865                           intcon	equ	0xFF2
  2866                           postinc0	equ	0xFEE
  2867                           fsr0h	equ	0xFEA
  2868                           fsr0l	equ	0xFE9
  2869                           wreg	equ	0xFE8
  2870                           indf1	equ	0xFE7
  2871                           fsr1h	equ	0xFE2
  2872                           fsr1l	equ	0xFE1
  2873                           bsr	equ	0xFE0
  2874                           indf2	equ	0xFDF
  2875                           postinc2	equ	0xFDE
  2876                           postdec2	equ	0xFDD
  2877                           plusw2	equ	0xFDB
  2878                           fsr2h	equ	0xFDA
  2879                           fsr2l	equ	0xFD9
  2880                           status	equ	0xFD8
  2881                           
  2882 ;; *************** function _SYS_InterruptHigh *****************
  2883 ;; Defined at:
  2884 ;;		line 6 in file "system.c"
  2885 ;; Parameters:    Size  Location     Type
  2886 ;;		None
  2887 ;; Auto vars:     Size  Location     Type
  2888 ;;		None
  2889 ;; Return value:  Size  Location     Type
  2890 ;;                  1    wreg      void 
  2891 ;; Registers used:
  2892 ;;		wreg, fsr1l, fsr1h, fsr2l, fsr2h, status,2, status,0, pclath, tosl, tblptrl, tblptrh, tblptru, prodl, prodh, cstack
  2893 ;; Tracked objects:
  2894 ;;		On entry : 0/0
  2895 ;;		On exit  : 0/0
  2896 ;;		Unchanged: 0/0
  2897 ;; Data sizes:     COMRAM   BANK0   BANK1   BANK2   BANK3   BANK4   BANK5   BANK6   BANK7
  2898 ;;      Params:         0       0       0       0       0       0       0       0       0
  2899 ;;      Locals:         0       0       0       0       0       0       0       0       0
  2900 ;;      Temps:         14       0       0       0       0       0       0       0       0
  2901 ;;      Totals:        14       0       0       0       0       0       0       0       0
  2902 ;;Total ram usage:       14 bytes
  2903 ;; Hardware stack levels used:    1
  2904 ;; Hardware stack levels required when called:   10
  2905 ;; This function calls:
  2906 ;;		_USBDeviceTasks
  2907 ;; This function is called by:
  2908 ;;		Interrupt level 2
  2909 ;; This function uses a non-reentrant model
  2910 ;;
  2911                           
  2912                           	psect	intcode
  2913  000008                     __pintcode:
  2914                           	opt stack 0
  2915  000008                     _SYS_InterruptHigh:
  2916                           	opt stack 15
  2917                           
  2918                           ;incstack = 0
  2919  000008  8258               	bsf	btemp,1,c	;set compiler interrupt flag (level 2)
  2920  00000A  ED3D  F010         	call	int_func,f	;refresh shadow registers
  2921                           pclatu	equ	0xFFB
  2922                           pclath	equ	0xFFA
  2923                           tblptru	equ	0xFF8
  2924                           tblptrh	equ	0xFF7
  2925                           tblptrl	equ	0xFF6
  2926                           tablat	equ	0xFF5
  2927                           prodh	equ	0xFF4
  2928                           prodl	equ	0xFF3
  2929                           intcon	equ	0xFF2
  2930                           postinc0	equ	0xFEE
  2931                           fsr0h	equ	0xFEA
  2932                           fsr0l	equ	0xFE9
  2933                           wreg	equ	0xFE8
  2934                           indf1	equ	0xFE7
  2935                           fsr1h	equ	0xFE2
  2936                           fsr1l	equ	0xFE1
  2937                           bsr	equ	0xFE0
  2938                           indf2	equ	0xFDF
  2939                           postinc2	equ	0xFDE
  2940                           postdec2	equ	0xFDD
  2941                           plusw2	equ	0xFDB
  2942                           fsr2h	equ	0xFDA
  2943                           fsr2l	equ	0xFD9
  2944                           status	equ	0xFD8
  2945                           
  2946                           	psect	intcode_body
  2947  00207A                     __pintcode_body:
  2948                           	opt stack 15
  2949  00207A                     int_func:
  2950                           	opt stack 15
  2951  00207A  0006               	pop		; remove dummy address from shadow register refresh
  2952  00207C  CFFA F04A          	movff	pclath,??_SYS_InterruptHigh
  2953  002080  CFFB F04B          	movff	pclatu,??_SYS_InterruptHigh+1
  2954  002084  CFE9 F04C          	movff	fsr0l,??_SYS_InterruptHigh+2
  2955  002088  CFEA F04D          	movff	fsr0h,??_SYS_InterruptHigh+3
  2956  00208C  CFE1 F04E          	movff	fsr1l,??_SYS_InterruptHigh+4
  2957  002090  CFE2 F04F          	movff	fsr1h,??_SYS_InterruptHigh+5
  2958  002094  CFD9 F050          	movff	fsr2l,??_SYS_InterruptHigh+6
  2959  002098  CFDA F051          	movff	fsr2h,??_SYS_InterruptHigh+7
  2960  00209C  CFF3 F052          	movff	prodl,??_SYS_InterruptHigh+8
  2961  0020A0  CFF4 F053          	movff	prodh,??_SYS_InterruptHigh+9
  2962  0020A4  CFF6 F054          	movff	tblptrl,??_SYS_InterruptHigh+10
  2963  0020A8  CFF7 F055          	movff	tblptrh,??_SYS_InterruptHigh+11
  2964  0020AC  CFF8 F056          	movff	tblptru,??_SYS_InterruptHigh+12
  2965  0020B0  CFF5 F057          	movff	tablat,??_SYS_InterruptHigh+13
  2966                           
  2967                           ;system.c: 12: USBDeviceTasks();
  2968  0020B4  EC7D  F009         	call	_USBDeviceTasks	;wreg free
  2969  0020B8  C057  FFF5         	movff	??_SYS_InterruptHigh+13,tablat
  2970  0020BC  C056  FFF8         	movff	??_SYS_InterruptHigh+12,tblptru
  2971  0020C0  C055  FFF7         	movff	??_SYS_InterruptHigh+11,tblptrh
  2972  0020C4  C054  FFF6         	movff	??_SYS_InterruptHigh+10,tblptrl
  2973  0020C8  C053  FFF4         	movff	??_SYS_InterruptHigh+9,prodh
  2974  0020CC  C052  FFF3         	movff	??_SYS_InterruptHigh+8,prodl
  2975  0020D0  C051  FFDA         	movff	??_SYS_InterruptHigh+7,fsr2h
  2976  0020D4  C050  FFD9         	movff	??_SYS_InterruptHigh+6,fsr2l
  2977  0020D8  C04F  FFE2         	movff	??_SYS_InterruptHigh+5,fsr1h
  2978  0020DC  C04E  FFE1         	movff	??_SYS_InterruptHigh+4,fsr1l
  2979  0020E0  C04D  FFEA         	movff	??_SYS_InterruptHigh+3,fsr0h
  2980  0020E4  C04C  FFE9         	movff	??_SYS_InterruptHigh+2,fsr0l
  2981  0020E8  C04B  FFFB         	movff	??_SYS_InterruptHigh+1,pclatu
  2982  0020EC  C04A  FFFA         	movff	??_SYS_InterruptHigh,pclath
  2983  0020F0  9258               	bcf	btemp,1,c	;clear compiler interrupt flag (level 2)
  2984  0020F2  0011               	retfie		f
  2985  0020F4                     __end_of_SYS_InterruptHigh:
  2986                           	opt stack 0
  2987                           pclatu	equ	0xFFB
  2988                           pclath	equ	0xFFA
  2989                           tblptru	equ	0xFF8
  2990                           tblptrh	equ	0xFF7
  2991                           tblptrl	equ	0xFF6
  2992                           tablat	equ	0xFF5
  2993                           prodh	equ	0xFF4
  2994                           prodl	equ	0xFF3
  2995                           intcon	equ	0xFF2
  2996                           postinc0	equ	0xFEE
  2997                           fsr0h	equ	0xFEA
  2998                           fsr0l	equ	0xFE9
  2999                           wreg	equ	0xFE8
  3000                           indf1	equ	0xFE7
  3001                           fsr1h	equ	0xFE2
  3002                           fsr1l	equ	0xFE1
  3003                           bsr	equ	0xFE0
  3004                           indf2	equ	0xFDF
  3005                           postinc2	equ	0xFDE
  3006                           postdec2	equ	0xFDD
  3007                           plusw2	equ	0xFDB
  3008                           fsr2h	equ	0xFDA
  3009                           fsr2l	equ	0xFD9
  3010                           status	equ	0xFD8
  3011                           
  3012 ;; *************** function _USBDeviceTasks *****************
  3013 ;; Defined at:
  3014 ;;		line 477 in file "../mla/v2017_03_06/framework/usb/src/usb_device.c"
  3015 ;; Parameters:    Size  Location     Type
  3016 ;;		None
  3017 ;; Auto vars:     Size  Location     Type
  3018 ;;  i               1   28[COMRAM] unsigned char 
  3019 ;; Return value:  Size  Location     Type
  3020 ;;                  1    wreg      void 
  3021 ;; Registers used:
  3022 ;;		wreg, fsr1l, fsr1h, fsr2l, fsr2h, status,2, status,0, pclath, tosl, tblptrl, tblptrh, tblptru, prodl, prodh, cstack
  3023 ;; Tracked objects:
  3024 ;;		On entry : 0/0
  3025 ;;		On exit  : 0/0
  3026 ;;		Unchanged: 0/0
  3027 ;; Data sizes:     COMRAM   BANK0   BANK1   BANK2   BANK3   BANK4   BANK5   BANK6   BANK7
  3028 ;;      Params:         0       0       0       0       0       0       0       0       0
  3029 ;;      Locals:         1       0       0       0       0       0       0       0       0
  3030 ;;      Temps:          0       0       0       0       0       0       0       0       0
  3031 ;;      Totals:         1       0       0       0       0       0       0       0       0
  3032 ;;Total ram usage:        1 bytes
  3033 ;; Hardware stack levels used:    1
  3034 ;; Hardware stack levels required when called:    9
  3035 ;; This function calls:
  3036 ;;		_USBCtrlEPAllowStatusStage
  3037 ;;		_USBCtrlEPService
  3038 ;;		_USBIncrement1msInternalTimers
  3039 ;;		_USBStallHandler
  3040 ;;		_USBSuspend
  3041 ;;		_USBWakeFromSuspend
  3042 ;;		_USER_USB_CALLBACK_EVENT_HANDLER
  3043 ;;		i2_USBDeviceInit
  3044 ;; This function is called by:
  3045 ;;		_SYS_InterruptHigh
  3046 ;; This function uses a non-reentrant model
  3047 ;;
  3048                           
  3049                           	psect	text15
  3050  0012FA                     __ptext15:
  3051                           	opt stack 0
  3052  0012FA                     _USBDeviceTasks:
  3053                           	opt stack 15
  3054                           
  3055                           ;usb_device.c: 479: uint8_t i;
  3056                           ;usb_device.c: 590: if(USBDeviceState == ATTACHED_STATE)
  3057                           
  3058                           ;incstack = 0
  3059  0012FA  0428               	decf	_USBDeviceState,w,c	;volatile
  3060  0012FC  B4D8               	btfsc	status,2,c
  3061                           
  3062                           ;usb_device.c: 591: {
  3063                           ;usb_device.c: 601: if(!UCONbits.SE0)
  3064  0012FE  BA6D               	btfsc	3949,5,c	;volatile
  3065  001300  D006               	goto	i2l3814
  3066                           
  3067                           ;usb_device.c: 602: {
  3068                           ;usb_device.c: 608: {UIR = 0;};
  3069  001302  0E00               	movlw	0
  3070  001304  6E68               	movwf	3944,c	;volatile
  3071                           
  3072                           ;usb_device.c: 614: UIEbits.URSTIE = 1;
  3073  001306  8069               	bsf	3945,0,c	;volatile
  3074                           
  3075                           ;usb_device.c: 615: UIEbits.IDLEIE = 1;
  3076  001308  8869               	bsf	3945,4,c	;volatile
  3077                           
  3078                           ;usb_device.c: 616: USBDeviceState = POWERED_STATE;
  3079  00130A  0E02               	movlw	2
  3080  00130C  6E28               	movwf	_USBDeviceState,c	;volatile
  3081  00130E                     i2l3814:
  3082                           
  3083                           ;usb_device.c: 617: }
  3084                           ;usb_device.c: 618: }
  3085                           ;usb_device.c: 634: if(UIRbits.ACTVIF && UIEbits.ACTVIE)
  3086  00130E  B468               	btfsc	3944,2,c	;volatile
  3087  001310  A469               	btfss	3945,2,c	;volatile
  3088  001312  D003               	goto	i2l3822
  3089                           
  3090                           ;usb_device.c: 635: {
  3091                           ;usb_device.c: 636: (UIR &= 0xFB);
  3092  001314  9468               	bcf	3944,2,c	;volatile
  3093                           
  3094                           ;usb_device.c: 640: USBWakeFromSuspend();
  3095  001316  EC1F  F012         	call	_USBWakeFromSuspend	;wreg free
  3096  00131A                     i2l3822:
  3097                           
  3098                           ;usb_device.c: 642: }
  3099                           ;usb_device.c: 647: if(UCONbits.SUSPND==1)
  3100  00131A  A26D               	btfss	3949,1,c	;volatile
  3101  00131C  D002               	goto	i2l247
  3102                           
  3103                           ;usb_device.c: 648: {
  3104                           ;usb_device.c: 649: {PIR2bits.USBIF = 0;};
  3105  00131E  9AA1               	bcf	4001,5,c	;volatile
  3106                           
  3107                           ;usb_device.c: 650: return;
  3108  001320  0012               	return	
  3109  001322                     i2l247:
  3110                           
  3111                           ;usb_device.c: 651: }
  3112                           ;usb_device.c: 663: if(UIRbits.URSTIF && UIEbits.URSTIE)
  3113  001322  B068               	btfsc	3944,0,c	;volatile
  3114  001324  A069               	btfss	3945,0,c	;volatile
  3115  001326  D006               	goto	i2l3836
  3116                           
  3117                           ;usb_device.c: 664: {
  3118                           ;usb_device.c: 665: USBDeviceInit();
  3119  001328  EC69  F006         	call	i2_USBDeviceInit	;wreg free
  3120                           
  3121                           ;usb_device.c: 669: {PIE2bits.USBIE = 1;};
  3122  00132C  8AA0               	bsf	4000,5,c	;volatile
  3123                           
  3124                           ;usb_device.c: 671: USBDeviceState = DEFAULT_STATE;
  3125  00132E  0E04               	movlw	4
  3126  001330  6E28               	movwf	_USBDeviceState,c	;volatile
  3127                           
  3128                           ;usb_device.c: 681: (UIR &= 0xFE);
  3129  001332  9068               	bcf	3944,0,c	;volatile
  3130  001334                     i2l3836:
  3131                           
  3132                           ;usb_device.c: 682: }
  3133                           ;usb_device.c: 687: if(UIRbits.IDLEIF && UIEbits.IDLEIE)
  3134  001334  B868               	btfsc	3944,4,c	;volatile
  3135  001336  A869               	btfss	3945,4,c	;volatile
  3136  001338  D002               	goto	i2l3842
  3137                           
  3138                           ;usb_device.c: 688: {
  3139                           ;usb_device.c: 694: USBSuspend();
  3140  00133A  EC50  F012         	call	_USBSuspend	;wreg free
  3141  00133E                     i2l3842:
  3142                           
  3143                           ;usb_device.c: 696: }
  3144                           ;usb_device.c: 708: if(UIRbits.SOFIF)
  3145  00133E  AC68               	btfss	3944,6,c	;volatile
  3146  001340  D01A               	goto	i2l3860
  3147                           
  3148                           ;usb_device.c: 709: {
  3149                           ;usb_device.c: 711: if(UIEbits.SOFIE)
  3150  001342  AC69               	btfss	3945,6,c	;volatile
  3151  001344  D00E               	goto	i2l3848
  3152                           
  3153                           ;usb_device.c: 712: {
  3154                           ;usb_device.c: 713: USER_USB_CALLBACK_EVENT_HANDLER(EVENT_SOF,0,1);
  3155  001346  0E00               	movlw	0
  3156  001348  6E3B               	movwf	USER_USB_CALLBACK_EVENT_HANDLER@event+1,c
  3157  00134A  0E73               	movlw	115
  3158  00134C  6E3A               	movwf	USER_USB_CALLBACK_EVENT_HANDLER@event,c
  3159  00134E  0E00               	movlw	0
  3160  001350  6E3C               	movwf	USER_USB_CALLBACK_EVENT_HANDLER@pdata,c
  3161  001352  0E00               	movlw	0
  3162  001354  6E3D               	movwf	USER_USB_CALLBACK_EVENT_HANDLER@pdata+1,c
  3163  001356  0E00               	movlw	0
  3164  001358  6E3F               	movwf	USER_USB_CALLBACK_EVENT_HANDLER@size+1,c
  3165  00135A  0E01               	movlw	1
  3166  00135C  6E3E               	movwf	USER_USB_CALLBACK_EVENT_HANDLER@size,c
  3167  00135E  ECE2  F010         	call	_USER_USB_CALLBACK_EVENT_HANDLER	;wreg free
  3168  001362                     i2l3848:
  3169                           
  3170                           ;usb_device.c: 714: }
  3171                           ;usb_device.c: 715: (UIR &= 0xBF);
  3172  001362  9C68               	bcf	3944,6,c	;volatile
  3173                           
  3174                           ;usb_device.c: 718: USBIncrement1msInternalTimers();
  3175  001364  EC8C  F012         	call	_USBIncrement1msInternalTimers	;wreg free
  3176                           
  3177                           ;usb_device.c: 735: if(USBStatusStageTimeoutCounter != 0u)
  3178  001368  5021               	movf	_USBStatusStageTimeoutCounter,w,c	;volatile
  3179  00136A  A4D8               	btfss	status,2,c
  3180                           
  3181                           ;usb_device.c: 736: {
  3182                           ;usb_device.c: 737: USBStatusStageTimeoutCounter--;
  3183  00136C  0621               	decf	_USBStatusStageTimeoutCounter,f,c	;volatile
  3184                           
  3185                           ;usb_device.c: 738: }
  3186                           ;usb_device.c: 744: if(USBStatusStageTimeoutCounter == 0)
  3187  00136E  5021               	movf	_USBStatusStageTimeoutCounter,w,c	;volatile
  3188  001370  B4D8               	btfsc	status,2,c
  3189                           
  3190                           ;usb_device.c: 745: {
  3191                           ;usb_device.c: 746: USBCtrlEPAllowStatusStage();
  3192  001372  ECA8  F00D         	call	_USBCtrlEPAllowStatusStage	;wreg free
  3193  001376                     i2l3860:
  3194                           
  3195                           ;usb_device.c: 747: }
  3196                           ;usb_device.c: 749: }
  3197                           ;usb_device.c: 751: if(UIRbits.STALLIF && UIEbits.STALLIE)
  3198  001376  BA68               	btfsc	3944,5,c	;volatile
  3199  001378  AA69               	btfss	3945,5,c	;volatile
  3200  00137A  D002               	goto	i2l3866
  3201                           
  3202                           ;usb_device.c: 752: {
  3203                           ;usb_device.c: 753: USBStallHandler();
  3204  00137C  EC8D  F011         	call	_USBStallHandler	;wreg free
  3205  001380                     i2l3866:
  3206                           
  3207                           ;usb_device.c: 754: }
  3208                           ;usb_device.c: 756: if(UIRbits.UERRIF && UIEbits.UERRIE)
  3209  001380  B268               	btfsc	3944,1,c	;volatile
  3210  001382  A269               	btfss	3945,1,c	;volatile
  3211  001384  D00F               	goto	i2l3874
  3212                           
  3213                           ;usb_device.c: 757: {
  3214                           ;usb_device.c: 758: USER_USB_CALLBACK_EVENT_HANDLER(EVENT_BUS_ERROR,0,1);
  3215  001386  0E7F               	movlw	127
  3216  001388  6E3B               	movwf	USER_USB_CALLBACK_EVENT_HANDLER@event+1,c
  3217  00138A  683A               	setf	USER_USB_CALLBACK_EVENT_HANDLER@event,c
  3218  00138C  0E00               	movlw	0
  3219  00138E  6E3C               	movwf	USER_USB_CALLBACK_EVENT_HANDLER@pdata,c
  3220  001390  0E00               	movlw	0
  3221  001392  6E3D               	movwf	USER_USB_CALLBACK_EVENT_HANDLER@pdata+1,c
  3222  001394  0E00               	movlw	0
  3223  001396  6E3F               	movwf	USER_USB_CALLBACK_EVENT_HANDLER@size+1,c
  3224  001398  0E01               	movlw	1
  3225  00139A  6E3E               	movwf	USER_USB_CALLBACK_EVENT_HANDLER@size,c
  3226  00139C  ECE2  F010         	call	_USER_USB_CALLBACK_EVENT_HANDLER	;wreg free
  3227                           
  3228                           ;usb_device.c: 759: {UEIR = 0;};
  3229  0013A0  0E00               	movlw	0
  3230  0013A2  6E6A               	movwf	3946,c	;volatile
  3231  0013A4                     i2l3874:
  3232                           
  3233                           ;usb_device.c: 767: }
  3234                           ;usb_device.c: 774: if(USBDeviceState < DEFAULT_STATE)
  3235  0013A4  0E04               	movlw	4
  3236  0013A6  6028               	cpfslt	_USBDeviceState,c	;volatile
  3237  0013A8  D002               	goto	i2l257
  3238                           
  3239                           ;usb_device.c: 775: {
  3240                           ;usb_device.c: 776: {PIR2bits.USBIF = 0;};
  3241  0013AA  9AA1               	bcf	4001,5,c	;volatile
  3242                           
  3243                           ;usb_device.c: 777: return;
  3244  0013AC  0012               	return	
  3245  0013AE                     i2l257:
  3246                           
  3247                           ;usb_device.c: 778: }
  3248                           ;usb_device.c: 783: if(UIEbits.TRNIE)
  3249  0013AE  A669               	btfss	3945,3,c	;volatile
  3250  0013B0  D039               	goto	i2l258
  3251                           
  3252                           ;usb_device.c: 784: {
  3253                           ;usb_device.c: 785: for(i = 0; i < 4u; i++)
  3254  0013B2  0E00               	movlw	0
  3255  0013B4  6E49               	movwf	USBDeviceTasks@i,c
  3256  0013B6                     i2l3880:
  3257  0013B6  0E03               	movlw	3
  3258  0013B8  6449               	cpfsgt	USBDeviceTasks@i,c
  3259  0013BA  D001               	goto	i2l259
  3260  0013BC  D033               	goto	i2l258
  3261  0013BE                     i2l259:
  3262                           
  3263                           ;usb_device.c: 786: {
  3264                           ;usb_device.c: 787: if(UIRbits.TRNIF)
  3265  0013BE  A668               	btfss	3944,3,c	;volatile
  3266  0013C0  D031               	goto	i2l258
  3267                           
  3268                           ;usb_device.c: 788: {
  3269                           ;usb_device.c: 790: USTATcopy.Val = USTAT;
  3270  0013C2  CF6C F02B          	movff	3948,_USTATcopy	;volatile
  3271                           
  3272                           ;usb_device.c: 791: endpoint_number = USTATcopy.endpoint_number;
  3273  0013C6  302B               	rrcf	_USTATcopy,w,c	;volatile
  3274  0013C8  32E8               	rrcf	wreg,f,c
  3275  0013CA  32E8               	rrcf	wreg,f,c
  3276  0013CC  0B0F               	andlw	15
  3277  0013CE  6E23               	movwf	_endpoint_number,c	;volatile
  3278                           
  3279                           ;usb_device.c: 793: (UIR &= 0xF7);
  3280  0013D0  9668               	bcf	3944,3,c	;volatile
  3281                           
  3282                           ;usb_device.c: 798: if(USTATcopy.direction == 0)
  3283  0013D2  B42B               	btfsc	_USTATcopy,2,c	;volatile
  3284  0013D4  D007               	goto	i2l3894
  3285                           
  3286                           ;usb_device.c: 799: {
  3287                           ;usb_device.c: 800: ep_data_out[endpoint_number].bits.ping_pong_state ^= 1;
  3288  0013D6  5023               	movf	_endpoint_number,w,c	;volatile
  3289  0013D8  0D01               	mullw	1
  3290  0013DA  0E7E               	movlw	low _ep_data_out
  3291  0013DC  24F3               	addwf	prodl,w,c
  3292  0013DE  6ED9               	movwf	fsr2l,c
  3293  0013E0  0E00               	movlw	high _ep_data_out
  3294  0013E2  D006               	goto	L4
  3295  0013E4                     i2l3894:
  3296                           
  3297                           ;usb_device.c: 802: else
  3298                           ;usb_device.c: 803: {
  3299                           ;usb_device.c: 804: ep_data_in[endpoint_number].bits.ping_pong_state ^= 1;
  3300  0013E4  5023               	movf	_endpoint_number,w,c	;volatile
  3301  0013E6  0D01               	mullw	1
  3302  0013E8  0E81               	movlw	low _ep_data_in
  3303  0013EA  24F3               	addwf	prodl,w,c
  3304  0013EC  6ED9               	movwf	fsr2l,c
  3305  0013EE  0E00               	movlw	high _ep_data_in
  3306  0013F0                     L4:
  3307  0013F0  20F4               	addwfc	prodh,w,c
  3308  0013F2  6EDA               	movwf	fsr2h,c
  3309  0013F4  0100               	movlb	0	; () banked
  3310  0013F6  70DF               	btg	indf2,0,c
  3311                           
  3312                           ; BSR set to: 0
  3313                           ;usb_device.c: 805: }
  3314                           ;usb_device.c: 810: if(endpoint_number == 0)
  3315                           
  3316                           ; BSR set to: 0
  3317  0013F8  5023               	movf	_endpoint_number,w,c	;volatile
  3318  0013FA  A4D8               	btfss	status,2,c
  3319  0013FC  D003               	goto	i2l3900
  3320                           
  3321                           ; BSR set to: 0
  3322                           ;usb_device.c: 811: {
  3323                           ;usb_device.c: 812: USBCtrlEPService();
  3324  0013FE  EC67  F00F         	call	_USBCtrlEPService	;wreg free
  3325                           
  3326                           ;usb_device.c: 813: }
  3327  001402  D00E               	goto	i2l3902
  3328  001404                     i2l3900:
  3329                           
  3330                           ;usb_device.c: 814: else
  3331                           ;usb_device.c: 815: {
  3332                           ;usb_device.c: 816: USER_USB_CALLBACK_EVENT_HANDLER(EVENT_TRANSFER,(uint8_t*)&USTATcopy.
      +                          Val,0);
  3333  001404  0E00               	movlw	0
  3334  001406  6E3B               	movwf	USER_USB_CALLBACK_EVENT_HANDLER@event+1,c
  3335  001408  0E72               	movlw	114
  3336  00140A  6E3A               	movwf	USER_USB_CALLBACK_EVENT_HANDLER@event,c
  3337  00140C  0E2B               	movlw	low _USTATcopy
  3338  00140E  6E3C               	movwf	USER_USB_CALLBACK_EVENT_HANDLER@pdata,c
  3339  001410  0E00               	movlw	high _USTATcopy
  3340  001412  6E3D               	movwf	USER_USB_CALLBACK_EVENT_HANDLER@pdata+1,c
  3341  001414  0E00               	movlw	0
  3342  001416  6E3F               	movwf	USER_USB_CALLBACK_EVENT_HANDLER@size+1,c
  3343  001418  0E00               	movlw	0
  3344  00141A  6E3E               	movwf	USER_USB_CALLBACK_EVENT_HANDLER@size,c
  3345  00141C  ECE2  F010         	call	_USER_USB_CALLBACK_EVENT_HANDLER	;wreg free
  3346  001420                     i2l3902:
  3347  001420  2A49               	incf	USBDeviceTasks@i,f,c
  3348  001422  D7C9               	goto	i2l3880
  3349  001424                     i2l258:
  3350                           
  3351                           ;usb_device.c: 822: }
  3352                           ;usb_device.c: 823: }
  3353                           ;usb_device.c: 824: }
  3354                           ;usb_device.c: 826: {PIR2bits.USBIF = 0;};
  3355  001424  9AA1               	bcf	4001,5,c	;volatile
  3356  001426  0012               	return		;funcret
  3357  001428                     __end_of_USBDeviceTasks:
  3358                           	opt stack 0
  3359                           pclatu	equ	0xFFB
  3360                           pclath	equ	0xFFA
  3361                           tblptru	equ	0xFF8
  3362                           tblptrh	equ	0xFF7
  3363                           tblptrl	equ	0xFF6
  3364                           tablat	equ	0xFF5
  3365                           prodh	equ	0xFF4
  3366                           prodl	equ	0xFF3
  3367                           intcon	equ	0xFF2
  3368                           postinc0	equ	0xFEE
  3369                           fsr0h	equ	0xFEA
  3370                           fsr0l	equ	0xFE9
  3371                           wreg	equ	0xFE8
  3372                           indf1	equ	0xFE7
  3373                           fsr1h	equ	0xFE2
  3374                           fsr1l	equ	0xFE1
  3375                           bsr	equ	0xFE0
  3376                           indf2	equ	0xFDF
  3377                           postinc2	equ	0xFDE
  3378                           postdec2	equ	0xFDD
  3379                           plusw2	equ	0xFDB
  3380                           fsr2h	equ	0xFDA
  3381                           fsr2l	equ	0xFD9
  3382                           status	equ	0xFD8
  3383                           
  3384 ;; *************** function i2_USBDeviceInit *****************
  3385 ;; Defined at:
  3386 ;;		line 277 in file "../mla/v2017_03_06/framework/usb/src/usb_device.c"
  3387 ;; Parameters:    Size  Location     Type
  3388 ;;		None
  3389 ;; Auto vars:     Size  Location     Type
  3390 ;;  USBDeviceIni    1    8[COMRAM] unsigned char 
  3391 ;; Return value:  Size  Location     Type
  3392 ;;                  1    wreg      void 
  3393 ;; Registers used:
  3394 ;;		wreg, fsr2l, fsr2h, status,2, status,0, prodl, prodh, cstack
  3395 ;; Tracked objects:
  3396 ;;		On entry : 0/0
  3397 ;;		On exit  : 0/0
  3398 ;;		Unchanged: 0/0
  3399 ;; Data sizes:     COMRAM   BANK0   BANK1   BANK2   BANK3   BANK4   BANK5   BANK6   BANK7
  3400 ;;      Params:         0       0       0       0       0       0       0       0       0
  3401 ;;      Locals:         1       0       0       0       0       0       0       0       0
  3402 ;;      Temps:          0       0       0       0       0       0       0       0       0
  3403 ;;      Totals:         1       0       0       0       0       0       0       0       0
  3404 ;;Total ram usage:        1 bytes
  3405 ;; Hardware stack levels used:    1
  3406 ;; Hardware stack levels required when called:    1
  3407 ;; This function calls:
  3408 ;;		i2_memset
  3409 ;; This function is called by:
  3410 ;;		_USBDeviceTasks
  3411 ;; This function uses a non-reentrant model
  3412 ;;
  3413                           
  3414                           	psect	text16
  3415  000CD2                     __ptext16:
  3416                           	opt stack 0
  3417  000CD2                     i2_USBDeviceInit:
  3418                           	opt stack 22
  3419                           
  3420                           ;usb_device.c: 279: uint8_t i;
  3421                           ;usb_device.c: 281: {PIE2bits.USBIE = 0;};
  3422                           
  3423                           ;incstack = 0
  3424  000CD2  9AA0               	bcf	4000,5,c	;volatile
  3425                           
  3426                           ;usb_device.c: 285: ;
  3427                           ;usb_device.c: 288: {UEIR = 0;};
  3428  000CD4  0E00               	movlw	0
  3429  000CD6  6E6A               	movwf	3946,c	;volatile
  3430                           
  3431                           ;usb_device.c: 291: {UIR = 0;};
  3432  000CD8  0E00               	movlw	0
  3433  000CDA  6E68               	movwf	3944,c	;volatile
  3434                           
  3435                           ;usb_device.c: 294: UEP0 = 0;
  3436  000CDC  0E00               	movlw	0
  3437  000CDE  6E70               	movwf	3952,c	;volatile
  3438                           
  3439                           ;usb_device.c: 296: memset((void*)&UEP1,0x00,(2));;
  3440  000CE0  0E71               	movlw	113
  3441  000CE2  6E2D               	movwf	i2memset@p1,c
  3442  000CE4  0E0F               	movlw	15
  3443  000CE6  6E2E               	movwf	i2memset@p1+1,c
  3444  000CE8  0E00               	movlw	0
  3445  000CEA  6E30               	movwf	i2memset@c+1,c
  3446  000CEC  0E00               	movlw	0
  3447  000CEE  6E2F               	movwf	i2memset@c,c
  3448  000CF0  0E00               	movlw	0
  3449  000CF2  6E32               	movwf	i2memset@n+1,c
  3450  000CF4  0E02               	movlw	2
  3451  000CF6  6E31               	movwf	i2memset@n,c
  3452  000CF8  EC66  F012         	call	i2_memset	;wreg free
  3453                           
  3454                           ;usb_device.c: 298: { UCFG = 0x10 | 0x00 | 0x04 | 0x02; UEIE = 0x9F; UIE = 0x39 | 0x40 |
      +                           0x02; };
  3455  000CFC  0E16               	movlw	22
  3456  000CFE  6E6F               	movwf	3951,c	;volatile
  3457  000D00  0E9F               	movlw	159
  3458  000D02  6E6B               	movwf	3947,c	;volatile
  3459  000D04  0E7B               	movlw	123
  3460  000D06  6E69               	movwf	3945,c	;volatile
  3461                           
  3462                           ;usb_device.c: 301: ;
  3463                           ;usb_device.c: 304: ;
  3464                           ;usb_device.c: 307: for(i = 0; i < (sizeof(BDT)/sizeof(BDT_ENTRY)); i++)
  3465  000D08  0E00               	movlw	0
  3466  000D0A  6E35               	movwf	i2USBDeviceInit@i,c
  3467  000D0C                     i2l3746:
  3468  000D0C  0E0B               	movlw	11
  3469  000D0E  6435               	cpfsgt	i2USBDeviceInit@i,c
  3470  000D10  D001               	goto	i2l3750
  3471  000D12  D00E               	goto	i2l236
  3472  000D14                     i2l3750:
  3473                           
  3474                           ;usb_device.c: 308: {
  3475                           ;usb_device.c: 309: BDT[i].Val = 0x00;
  3476  000D14  5035               	movf	i2USBDeviceInit@i,w,c
  3477  000D16  0D04               	mullw	4
  3478  000D18  0E00               	movlw	0
  3479  000D1A  24F3               	addwf	prodl,w,c
  3480  000D1C  6ED9               	movwf	fsr2l,c
  3481  000D1E  0E04               	movlw	4
  3482  000D20  20F4               	addwfc	prodh,w,c
  3483  000D22  6EDA               	movwf	fsr2h,c
  3484  000D24  6ADE               	clrf	postinc2,c
  3485  000D26  6ADE               	clrf	postinc2,c
  3486  000D28  6ADE               	clrf	postinc2,c
  3487  000D2A  6ADD               	clrf	postdec2,c
  3488  000D2C  2A35               	incf	i2USBDeviceInit@i,f,c
  3489  000D2E  D7EE               	goto	i2l3746
  3490  000D30                     i2l236:
  3491                           
  3492                           ;usb_device.c: 310: }
  3493                           ;usb_device.c: 313: UCONbits.PPBRST = 1;
  3494  000D30  8C6D               	bsf	3949,6,c	;volatile
  3495                           
  3496                           ;usb_device.c: 316: UADDR = 0x00;
  3497  000D32  0E00               	movlw	0
  3498  000D34  6E6E               	movwf	3950,c	;volatile
  3499                           
  3500                           ;usb_device.c: 319: UCONbits.PKTDIS = 0;
  3501  000D36  986D               	bcf	3949,4,c	;volatile
  3502                           
  3503                           ;usb_device.c: 322: UCONbits.PPBRST = 0;
  3504  000D38  9C6D               	bcf	3949,6,c	;volatile
  3505  000D3A                     i2l3762:
  3506                           
  3507                           ;usb_device.c: 326: {
  3508                           ;usb_device.c: 327: (UIR &= 0xF7);
  3509  000D3A  9668               	bcf	3944,3,c	;volatile
  3510                           
  3511                           ;usb_device.c: 329: inPipes[0].info.Val = 0;
  3512  000D3C  0E00               	movlw	0
  3513  000D3E  0100               	movlb	0	; () banked
  3514  000D40  6F6B               	movwf	(_inPipes+3)& (0+255),b	;volatile
  3515                           
  3516                           ; BSR set to: 0
  3517                           ;usb_device.c: 330: outPipes[0].info.Val = 0;
  3518  000D42  0E00               	movlw	0
  3519  000D44  0100               	movlb	0	; () banked
  3520  000D46  6F63               	movwf	(_outPipes+3)& (0+255),b	;volatile
  3521                           
  3522                           ; BSR set to: 0
  3523                           ;usb_device.c: 331: outPipes[0].wCount.Val = 0;
  3524  000D48  0E00               	movlw	0
  3525  000D4A  0100               	movlb	0	; () banked
  3526  000D4C  6F65               	movwf	(_outPipes+5)& (0+255),b	;volatile
  3527  000D4E  0E00               	movlw	0
  3528  000D50  6F64               	movwf	(_outPipes+4)& (0+255),b	;volatile
  3529                           
  3530                           ; BSR set to: 0
  3531                           ;usb_device.c: 332: }while(UIRbits.TRNIF == 1);
  3532  000D52  B668               	btfsc	3944,3,c	;volatile
  3533  000D54  D7F2               	goto	i2l3762
  3534                           
  3535                           ; BSR set to: 0
  3536                           ;usb_device.c: 336: USBStatusStageEnabledFlag1 = 1;
  3537                           
  3538                           ; BSR set to: 0
  3539  000D56  0E01               	movlw	1
  3540  000D58  6E1F               	movwf	_USBStatusStageEnabledFlag1,c	;volatile
  3541                           
  3542                           ;usb_device.c: 337: USBStatusStageEnabledFlag2 = 1;
  3543  000D5A  0E01               	movlw	1
  3544  000D5C  6E1E               	movwf	_USBStatusStageEnabledFlag2,c	;volatile
  3545                           
  3546                           ;usb_device.c: 339: USBDeferINDataStagePackets = 0;
  3547  000D5E  0E00               	movlw	0
  3548  000D60  6E1D               	movwf	_USBDeferINDataStagePackets,c	;volatile
  3549                           
  3550                           ;usb_device.c: 340: USBDeferOUTDataStagePackets = 0;
  3551  000D62  0E00               	movlw	0
  3552  000D64  6E1C               	movwf	_USBDeferOUTDataStagePackets,c	;volatile
  3553                           
  3554                           ;usb_device.c: 341: USBBusIsSuspended = 0;
  3555  000D66  0E00               	movlw	0
  3556  000D68  6E24               	movwf	_USBBusIsSuspended,c	;volatile
  3557                           
  3558                           ;usb_device.c: 345: for(i = 0; i < (uint8_t)(2+1u); i++)
  3559  000D6A  0E00               	movlw	0
  3560  000D6C  6E35               	movwf	i2USBDeviceInit@i,c
  3561  000D6E                     i2l3774:
  3562                           
  3563                           ; BSR set to: 0
  3564  000D6E  0E02               	movlw	2
  3565  000D70  6435               	cpfsgt	i2USBDeviceInit@i,c
  3566  000D72  D001               	goto	i2l3778
  3567  000D74  D02E               	goto	i2l3784
  3568  000D76                     i2l3778:
  3569                           
  3570                           ;usb_device.c: 346: {
  3571                           ;usb_device.c: 347: pBDTEntryIn[i] = 0u;
  3572  000D76  5035               	movf	i2USBDeviceInit@i,w,c
  3573  000D78  0D02               	mullw	2
  3574  000D7A  0E6E               	movlw	low _pBDTEntryIn
  3575  000D7C  24F3               	addwf	prodl,w,c
  3576  000D7E  6ED9               	movwf	fsr2l,c
  3577  000D80  0E00               	movlw	high _pBDTEntryIn
  3578  000D82  20F4               	addwfc	prodh,w,c
  3579  000D84  6EDA               	movwf	fsr2h,c
  3580  000D86  0E00               	movlw	0
  3581  000D88  6EDE               	movwf	postinc2,c
  3582  000D8A  0E00               	movlw	0
  3583  000D8C  6EDD               	movwf	postdec2,c
  3584                           
  3585                           ;usb_device.c: 348: pBDTEntryOut[i] = 0u;
  3586  000D8E  5035               	movf	i2USBDeviceInit@i,w,c
  3587  000D90  0D02               	mullw	2
  3588  000D92  0E74               	movlw	low _pBDTEntryOut
  3589  000D94  24F3               	addwf	prodl,w,c
  3590  000D96  6ED9               	movwf	fsr2l,c
  3591  000D98  0E00               	movlw	high _pBDTEntryOut
  3592  000D9A  20F4               	addwfc	prodh,w,c
  3593  000D9C  6EDA               	movwf	fsr2h,c
  3594  000D9E  0E00               	movlw	0
  3595  000DA0  6EDE               	movwf	postinc2,c
  3596  000DA2  0E00               	movlw	0
  3597  000DA4  6EDD               	movwf	postdec2,c
  3598                           
  3599                           ;usb_device.c: 349: ep_data_in[i].Val = 0u;
  3600  000DA6  5035               	movf	i2USBDeviceInit@i,w,c
  3601  000DA8  0D01               	mullw	1
  3602  000DAA  0E81               	movlw	low _ep_data_in
  3603  000DAC  24F3               	addwf	prodl,w,c
  3604  000DAE  6ED9               	movwf	fsr2l,c
  3605  000DB0  0E00               	movlw	high _ep_data_in
  3606  000DB2  20F4               	addwfc	prodh,w,c
  3607  000DB4  6EDA               	movwf	fsr2h,c
  3608  000DB6  0E00               	movlw	0
  3609  000DB8  6EDF               	movwf	indf2,c
  3610                           
  3611                           ;usb_device.c: 350: ep_data_out[i].Val = 0u;
  3612  000DBA  5035               	movf	i2USBDeviceInit@i,w,c
  3613  000DBC  0D01               	mullw	1
  3614  000DBE  0E7E               	movlw	low _ep_data_out
  3615  000DC0  24F3               	addwf	prodl,w,c
  3616  000DC2  6ED9               	movwf	fsr2l,c
  3617  000DC4  0E00               	movlw	high _ep_data_out
  3618  000DC6  20F4               	addwfc	prodh,w,c
  3619  000DC8  6EDA               	movwf	fsr2h,c
  3620  000DCA  0E00               	movlw	0
  3621  000DCC  6EDF               	movwf	indf2,c
  3622  000DCE  2A35               	incf	i2USBDeviceInit@i,f,c
  3623  000DD0  D7CE               	goto	i2l3774
  3624  000DD2                     i2l3784:
  3625                           
  3626                           ;usb_device.c: 351: }
  3627                           ;usb_device.c: 354: pBDTEntryIn[0] = (volatile BDT_ENTRY*)&BDT[2];
  3628  000DD2  0E08               	movlw	8
  3629  000DD4  0100               	movlb	0	; () banked
  3630  000DD6  6F6E               	movwf	_pBDTEntryIn& (0+255),b
  3631  000DD8  0E04               	movlw	4
  3632  000DDA  0100               	movlb	0	; () banked
  3633  000DDC  6F6F               	movwf	(_pBDTEntryIn+1)& (0+255),b
  3634                           
  3635                           ; BSR set to: 0
  3636                           ;usb_device.c: 356: UEP0 = 0x06|0x10;
  3637  000DDE  0E16               	movlw	22
  3638  000DE0  6E70               	movwf	3952,c	;volatile
  3639                           
  3640                           ; BSR set to: 0
  3641                           ;usb_device.c: 358: BDT[0].ADR = ((uint16_t)(&SetupPkt));
  3642  000DE2  0E04               	movlw	4
  3643  000DE4  0104               	movlb	4	; () banked
  3644  000DE6  6F03               	movwf	3,b	;volatile
  3645  000DE8  0E30               	movlw	48
  3646  000DEA  6F02               	movwf	2,b	;volatile
  3647                           
  3648                           ; BSR set to: 4
  3649                           ;usb_device.c: 359: BDT[0].CNT = 8;
  3650  000DEC  0E08               	movlw	8
  3651  000DEE  0104               	movlb	4	; () banked
  3652  000DF0  6F01               	movwf	1,b	;volatile
  3653                           
  3654                           ; BSR set to: 4
  3655                           ;usb_device.c: 360: BDT[0].STAT.Val = 0x00|0x04;
  3656  000DF2  0E04               	movlw	4
  3657  000DF4  0104               	movlb	4	; () banked
  3658  000DF6  6F00               	movwf	0,b	;volatile
  3659                           
  3660                           ; BSR set to: 4
  3661                           ;usb_device.c: 361: BDT[0].STAT.Val |= 0x80;
  3662  000DF8  0104               	movlb	4	; () banked
  3663  000DFA  8F00               	bsf	0,7,b	;volatile
  3664                           
  3665                           ; BSR set to: 4
  3666                           ;usb_device.c: 364: USBActiveConfiguration = 0;
  3667  000DFC  0E00               	movlw	0
  3668  000DFE  6E2C               	movwf	_USBActiveConfiguration,c	;volatile
  3669                           
  3670                           ; BSR set to: 4
  3671                           ;usb_device.c: 366: USB1msTickCount = 0;
  3672  000E00  0E00               	movlw	0
  3673  000E02  6E01               	movwf	_USB1msTickCount,c	;volatile
  3674  000E04  0E00               	movlw	0
  3675  000E06  6E02               	movwf	_USB1msTickCount+1,c	;volatile
  3676  000E08  0E00               	movlw	0
  3677  000E0A  6E03               	movwf	_USB1msTickCount+2,c	;volatile
  3678  000E0C  0E00               	movlw	0
  3679  000E0E  6E04               	movwf	_USB1msTickCount+3,c	;volatile
  3680                           
  3681                           ; BSR set to: 4
  3682                           ;usb_device.c: 367: USBTicksSinceSuspendEnd = 0;
  3683  000E10  0E00               	movlw	0
  3684  000E12  6E1B               	movwf	_USBTicksSinceSuspendEnd,c	;volatile
  3685                           
  3686                           ; BSR set to: 4
  3687                           ;usb_device.c: 370: USBDeviceState = DETACHED_STATE;
  3688  000E14  0E00               	movlw	0
  3689  000E16  6E28               	movwf	_USBDeviceState,c	;volatile
  3690                           
  3691                           ; BSR set to: 4
  3692  000E18  0012               	return		;funcret
  3693  000E1A                     __end_ofi2_USBDeviceInit:
  3694                           	opt stack 0
  3695                           pclatu	equ	0xFFB
  3696                           pclath	equ	0xFFA
  3697                           tblptru	equ	0xFF8
  3698                           tblptrh	equ	0xFF7
  3699                           tblptrl	equ	0xFF6
  3700                           tablat	equ	0xFF5
  3701                           prodh	equ	0xFF4
  3702                           prodl	equ	0xFF3
  3703                           intcon	equ	0xFF2
  3704                           postinc0	equ	0xFEE
  3705                           fsr0h	equ	0xFEA
  3706                           fsr0l	equ	0xFE9
  3707                           wreg	equ	0xFE8
  3708                           indf1	equ	0xFE7
  3709                           fsr1h	equ	0xFE2
  3710                           fsr1l	equ	0xFE1
  3711                           bsr	equ	0xFE0
  3712                           indf2	equ	0xFDF
  3713                           postinc2	equ	0xFDE
  3714                           postdec2	equ	0xFDD
  3715                           plusw2	equ	0xFDB
  3716                           fsr2h	equ	0xFDA
  3717                           fsr2l	equ	0xFD9
  3718                           status	equ	0xFD8
  3719                           
  3720 ;; *************** function _USBWakeFromSuspend *****************
  3721 ;; Defined at:
  3722 ;;		line 2303 in file "../mla/v2017_03_06/framework/usb/src/usb_device.c"
  3723 ;; Parameters:    Size  Location     Type
  3724 ;;		None
  3725 ;; Auto vars:     Size  Location     Type
  3726 ;;		None
  3727 ;; Return value:  Size  Location     Type
  3728 ;;                  1    wreg      void 
  3729 ;; Registers used:
  3730 ;;		wreg, fsr2l, fsr2h, status,2, status,0, prodl, prodh, cstack
  3731 ;; Tracked objects:
  3732 ;;		On entry : 0/0
  3733 ;;		On exit  : 0/0
  3734 ;;		Unchanged: 0/0
  3735 ;; Data sizes:     COMRAM   BANK0   BANK1   BANK2   BANK3   BANK4   BANK5   BANK6   BANK7
  3736 ;;      Params:         0       0       0       0       0       0       0       0       0
  3737 ;;      Locals:         0       0       0       0       0       0       0       0       0
  3738 ;;      Temps:          0       0       0       0       0       0       0       0       0
  3739 ;;      Totals:         0       0       0       0       0       0       0       0       0
  3740 ;;Total ram usage:        0 bytes
  3741 ;; Hardware stack levels used:    1
  3742 ;; Hardware stack levels required when called:    5
  3743 ;; This function calls:
  3744 ;;		_USER_USB_CALLBACK_EVENT_HANDLER
  3745 ;; This function is called by:
  3746 ;;		_USBDeviceTasks
  3747 ;; This function uses a non-reentrant model
  3748 ;;
  3749                           
  3750                           	psect	text17
  3751  00243E                     __ptext17:
  3752                           	opt stack 0
  3753  00243E                     _USBWakeFromSuspend:
  3754                           	opt stack 18
  3755                           
  3756                           ;usb_device.c: 2305: USBBusIsSuspended = 0;
  3757                           
  3758                           ; BSR set to: 4
  3759                           ;incstack = 0
  3760  00243E  0E00               	movlw	0
  3761  002440  6E24               	movwf	_USBBusIsSuspended,c	;volatile
  3762                           
  3763                           ;usb_device.c: 2311: USER_USB_CALLBACK_EVENT_HANDLER(EVENT_RESUME,0,0);
  3764  002442  0E00               	movlw	0
  3765  002444  6E3B               	movwf	USER_USB_CALLBACK_EVENT_HANDLER@event+1,c
  3766  002446  0E74               	movlw	116
  3767  002448  6E3A               	movwf	USER_USB_CALLBACK_EVENT_HANDLER@event,c
  3768  00244A  0E00               	movlw	0
  3769  00244C  6E3C               	movwf	USER_USB_CALLBACK_EVENT_HANDLER@pdata,c
  3770  00244E  0E00               	movlw	0
  3771  002450  6E3D               	movwf	USER_USB_CALLBACK_EVENT_HANDLER@pdata+1,c
  3772  002452  0E00               	movlw	0
  3773  002454  6E3F               	movwf	USER_USB_CALLBACK_EVENT_HANDLER@size+1,c
  3774  002456  0E00               	movlw	0
  3775  002458  6E3E               	movwf	USER_USB_CALLBACK_EVENT_HANDLER@size,c
  3776  00245A  ECE2  F010         	call	_USER_USB_CALLBACK_EVENT_HANDLER	;wreg free
  3777                           
  3778                           ;usb_device.c: 2318: UCONbits.SUSPND = 0;
  3779  00245E  926D               	bcf	3949,1,c	;volatile
  3780                           
  3781                           ;usb_device.c: 2323: UIEbits.ACTVIE = 0;
  3782  002460  9469               	bcf	3945,2,c	;volatile
  3783                           
  3784                           ;usb_device.c: 2341: while(UIRbits.ACTVIF)
  3785  002462  D001               	goto	i2l3672
  3786  002464                     i2l3670:
  3787                           
  3788                           ;usb_device.c: 2343: {
  3789                           ;usb_device.c: 2344: (UIR &= 0xFB);
  3790  002464  9468               	bcf	3944,2,c	;volatile
  3791  002466                     i2l3672:
  3792  002466  B468               	btfsc	3944,2,c	;volatile
  3793  002468  D7FD               	goto	i2l3670
  3794                           
  3795                           ;usb_device.c: 2345: }
  3796                           ;usb_device.c: 2347: USBTicksSinceSuspendEnd = 0;
  3797  00246A  0E00               	movlw	0
  3798  00246C  6E1B               	movwf	_USBTicksSinceSuspendEnd,c	;volatile
  3799  00246E  0012               	return		;funcret
  3800  002470                     __end_of_USBWakeFromSuspend:
  3801                           	opt stack 0
  3802                           pclatu	equ	0xFFB
  3803                           pclath	equ	0xFFA
  3804                           tblptru	equ	0xFF8
  3805                           tblptrh	equ	0xFF7
  3806                           tblptrl	equ	0xFF6
  3807                           tablat	equ	0xFF5
  3808                           prodh	equ	0xFF4
  3809                           prodl	equ	0xFF3
  3810                           intcon	equ	0xFF2
  3811                           postinc0	equ	0xFEE
  3812                           fsr0h	equ	0xFEA
  3813                           fsr0l	equ	0xFE9
  3814                           wreg	equ	0xFE8
  3815                           indf1	equ	0xFE7
  3816                           fsr1h	equ	0xFE2
  3817                           fsr1l	equ	0xFE1
  3818                           bsr	equ	0xFE0
  3819                           indf2	equ	0xFDF
  3820                           postinc2	equ	0xFDE
  3821                           postdec2	equ	0xFDD
  3822                           plusw2	equ	0xFDB
  3823                           fsr2h	equ	0xFDA
  3824                           fsr2l	equ	0xFD9
  3825                           status	equ	0xFD8
  3826                           
  3827 ;; *************** function _USBSuspend *****************
  3828 ;; Defined at:
  3829 ;;		line 2245 in file "../mla/v2017_03_06/framework/usb/src/usb_device.c"
  3830 ;; Parameters:    Size  Location     Type
  3831 ;;		None
  3832 ;; Auto vars:     Size  Location     Type
  3833 ;;		None
  3834 ;; Return value:  Size  Location     Type
  3835 ;;                  1    wreg      void 
  3836 ;; Registers used:
  3837 ;;		wreg, fsr2l, fsr2h, status,2, status,0, prodl, prodh, cstack
  3838 ;; Tracked objects:
  3839 ;;		On entry : 0/0
  3840 ;;		On exit  : 0/0
  3841 ;;		Unchanged: 0/0
  3842 ;; Data sizes:     COMRAM   BANK0   BANK1   BANK2   BANK3   BANK4   BANK5   BANK6   BANK7
  3843 ;;      Params:         0       0       0       0       0       0       0       0       0
  3844 ;;      Locals:         0       0       0       0       0       0       0       0       0
  3845 ;;      Temps:          0       0       0       0       0       0       0       0       0
  3846 ;;      Totals:         0       0       0       0       0       0       0       0       0
  3847 ;;Total ram usage:        0 bytes
  3848 ;; Hardware stack levels used:    1
  3849 ;; Hardware stack levels required when called:    5
  3850 ;; This function calls:
  3851 ;;		_USER_USB_CALLBACK_EVENT_HANDLER
  3852 ;; This function is called by:
  3853 ;;		_USBDeviceTasks
  3854 ;; This function uses a non-reentrant model
  3855 ;;
  3856                           
  3857                           	psect	text18
  3858  0024A0                     __ptext18:
  3859                           	opt stack 0
  3860  0024A0                     _USBSuspend:
  3861                           	opt stack 18
  3862                           
  3863                           ;usb_device.c: 2270: UIEbits.ACTVIE = 1;
  3864                           
  3865                           ;incstack = 0
  3866  0024A0  8469               	bsf	3945,2,c	;volatile
  3867                           
  3868                           ;usb_device.c: 2271: (UIR &= 0xEF);
  3869  0024A2  9868               	bcf	3944,4,c	;volatile
  3870                           
  3871                           ;usb_device.c: 2274: UCONbits.SUSPND = 1;
  3872  0024A4  826D               	bsf	3949,1,c	;volatile
  3873                           
  3874                           ;usb_device.c: 2277: USBBusIsSuspended = 1;
  3875  0024A6  0E01               	movlw	1
  3876  0024A8  6E24               	movwf	_USBBusIsSuspended,c	;volatile
  3877                           
  3878                           ;usb_device.c: 2278: USBTicksSinceSuspendEnd = 0;
  3879  0024AA  0E00               	movlw	0
  3880  0024AC  6E1B               	movwf	_USBTicksSinceSuspendEnd,c	;volatile
  3881                           
  3882                           ;usb_device.c: 2285: USER_USB_CALLBACK_EVENT_HANDLER(EVENT_SUSPEND,0,0);
  3883  0024AE  0E00               	movlw	0
  3884  0024B0  6E3B               	movwf	USER_USB_CALLBACK_EVENT_HANDLER@event+1,c
  3885  0024B2  0E75               	movlw	117
  3886  0024B4  6E3A               	movwf	USER_USB_CALLBACK_EVENT_HANDLER@event,c
  3887  0024B6  0E00               	movlw	0
  3888  0024B8  6E3C               	movwf	USER_USB_CALLBACK_EVENT_HANDLER@pdata,c
  3889  0024BA  0E00               	movlw	0
  3890  0024BC  6E3D               	movwf	USER_USB_CALLBACK_EVENT_HANDLER@pdata+1,c
  3891  0024BE  0E00               	movlw	0
  3892  0024C0  6E3F               	movwf	USER_USB_CALLBACK_EVENT_HANDLER@size+1,c
  3893  0024C2  0E00               	movlw	0
  3894  0024C4  6E3E               	movwf	USER_USB_CALLBACK_EVENT_HANDLER@size,c
  3895  0024C6  ECE2  F010         	call	_USER_USB_CALLBACK_EVENT_HANDLER	;wreg free
  3896  0024CA  0012               	return		;funcret
  3897  0024CC                     __end_of_USBSuspend:
  3898                           	opt stack 0
  3899                           pclatu	equ	0xFFB
  3900                           pclath	equ	0xFFA
  3901                           tblptru	equ	0xFF8
  3902                           tblptrh	equ	0xFF7
  3903                           tblptrl	equ	0xFF6
  3904                           tablat	equ	0xFF5
  3905                           prodh	equ	0xFF4
  3906                           prodl	equ	0xFF3
  3907                           intcon	equ	0xFF2
  3908                           postinc0	equ	0xFEE
  3909                           fsr0h	equ	0xFEA
  3910                           fsr0l	equ	0xFE9
  3911                           wreg	equ	0xFE8
  3912                           indf1	equ	0xFE7
  3913                           fsr1h	equ	0xFE2
  3914                           fsr1l	equ	0xFE1
  3915                           bsr	equ	0xFE0
  3916                           indf2	equ	0xFDF
  3917                           postinc2	equ	0xFDE
  3918                           postdec2	equ	0xFDD
  3919                           plusw2	equ	0xFDB
  3920                           fsr2h	equ	0xFDA
  3921                           fsr2l	equ	0xFD9
  3922                           status	equ	0xFD8
  3923                           
  3924 ;; *************** function _USBStallHandler *****************
  3925 ;; Defined at:
  3926 ;;		line 2202 in file "../mla/v2017_03_06/framework/usb/src/usb_device.c"
  3927 ;; Parameters:    Size  Location     Type
  3928 ;;		None
  3929 ;; Auto vars:     Size  Location     Type
  3930 ;;		None
  3931 ;; Return value:  Size  Location     Type
  3932 ;;                  1    wreg      void 
  3933 ;; Registers used:
  3934 ;;		wreg, fsr2l, fsr2h, status,2, status,0
  3935 ;; Tracked objects:
  3936 ;;		On entry : 0/0
  3937 ;;		On exit  : 0/0
  3938 ;;		Unchanged: 0/0
  3939 ;; Data sizes:     COMRAM   BANK0   BANK1   BANK2   BANK3   BANK4   BANK5   BANK6   BANK7
  3940 ;;      Params:         0       0       0       0       0       0       0       0       0
  3941 ;;      Locals:         0       0       0       0       0       0       0       0       0
  3942 ;;      Temps:          1       0       0       0       0       0       0       0       0
  3943 ;;      Totals:         1       0       0       0       0       0       0       0       0
  3944 ;;Total ram usage:        1 bytes
  3945 ;; Hardware stack levels used:    1
  3946 ;; This function calls:
  3947 ;;		Nothing
  3948 ;; This function is called by:
  3949 ;;		_USBDeviceTasks
  3950 ;; This function uses a non-reentrant model
  3951 ;;
  3952                           
  3953                           	psect	text19
  3954  00231A                     __ptext19:
  3955                           	opt stack 0
  3956  00231A                     _USBStallHandler:
  3957                           	opt stack 23
  3958                           
  3959                           ;usb_device.c: 2214: if(UEP0bits.EPSTALL == 1)
  3960                           
  3961                           ;incstack = 0
  3962  00231A  A070               	btfss	3952,0,c	;volatile
  3963  00231C  D01D               	goto	i2l397
  3964                           
  3965                           ;usb_device.c: 2215: {
  3966                           ;usb_device.c: 2217: if((pBDTEntryEP0OutCurrent->STAT.Val == 0x80) && (pBDTEntryIn[0]->S
      +                          TAT.Val == (0x80|0x04)))
  3967  00231E  C011  FFD9         	movff	_pBDTEntryEP0OutCurrent,fsr2l
  3968  002322  C012  FFDA         	movff	_pBDTEntryEP0OutCurrent+1,fsr2h
  3969  002326  0E80               	movlw	128
  3970  002328  18DE               	xorwf	postinc2,w,c
  3971  00232A  A4D8               	btfss	status,2,c
  3972  00232C  D014               	goto	i2l3708
  3973  00232E  C06E  FFD9         	movff	_pBDTEntryIn,fsr2l
  3974  002332  C06F  FFDA         	movff	_pBDTEntryIn+1,fsr2h
  3975  002336  0E84               	movlw	132
  3976  002338  18DE               	xorwf	postinc2,w,c
  3977  00233A  A4D8               	btfss	status,2,c
  3978  00233C  D00C               	goto	i2l3708
  3979                           
  3980                           ;usb_device.c: 2218: {
  3981                           ;usb_device.c: 2220: pBDTEntryEP0OutCurrent->STAT.Val = 0x00|(0x08 & 0x08)|0x04;
  3982  00233E  C011  FFD9         	movff	_pBDTEntryEP0OutCurrent,fsr2l
  3983  002342  C012  FFDA         	movff	_pBDTEntryEP0OutCurrent+1,fsr2h
  3984  002346  0E0C               	movlw	12
  3985  002348  6EDF               	movwf	indf2,c
  3986                           
  3987                           ;usb_device.c: 2221: pBDTEntryEP0OutCurrent->STAT.Val |= 0x80;
  3988  00234A  C011  FFD9         	movff	_pBDTEntryEP0OutCurrent,fsr2l
  3989  00234E  C012  FFDA         	movff	_pBDTEntryEP0OutCurrent+1,fsr2h
  3990  002352  0E00               	movlw	0
  3991  002354  8EDB               	bsf	plusw2,7,c
  3992  002356                     i2l3708:
  3993                           
  3994                           ;usb_device.c: 2222: }
  3995                           ;usb_device.c: 2223: UEP0bits.EPSTALL = 0;
  3996  002356  9070               	bcf	3952,0,c	;volatile
  3997  002358                     i2l397:
  3998                           
  3999                           ;usb_device.c: 2224: }
  4000                           ;usb_device.c: 2226: (UIR &= 0xDF);
  4001  002358  9A68               	bcf	3944,5,c	;volatile
  4002  00235A  0012               	return		;funcret
  4003  00235C                     __end_of_USBStallHandler:
  4004                           	opt stack 0
  4005                           pclatu	equ	0xFFB
  4006                           pclath	equ	0xFFA
  4007                           tblptru	equ	0xFF8
  4008                           tblptrh	equ	0xFF7
  4009                           tblptrl	equ	0xFF6
  4010                           tablat	equ	0xFF5
  4011                           prodh	equ	0xFF4
  4012                           prodl	equ	0xFF3
  4013                           intcon	equ	0xFF2
  4014                           postinc0	equ	0xFEE
  4015                           fsr0h	equ	0xFEA
  4016                           fsr0l	equ	0xFE9
  4017                           wreg	equ	0xFE8
  4018                           indf1	equ	0xFE7
  4019                           fsr1h	equ	0xFE2
  4020                           fsr1l	equ	0xFE1
  4021                           bsr	equ	0xFE0
  4022                           indf2	equ	0xFDF
  4023                           postinc2	equ	0xFDE
  4024                           postdec2	equ	0xFDD
  4025                           plusw2	equ	0xFDB
  4026                           fsr2h	equ	0xFDA
  4027                           fsr2l	equ	0xFD9
  4028                           status	equ	0xFD8
  4029                           
  4030 ;; *************** function _USBIncrement1msInternalTimers *****************
  4031 ;; Defined at:
  4032 ;;		line 3025 in file "../mla/v2017_03_06/framework/usb/src/usb_device.c"
  4033 ;; Parameters:    Size  Location     Type
  4034 ;;		None
  4035 ;; Auto vars:     Size  Location     Type
  4036 ;;		None
  4037 ;; Return value:  Size  Location     Type
  4038 ;;                  1    wreg      void 
  4039 ;; Registers used:
  4040 ;;		wreg, status,2, status,0
  4041 ;; Tracked objects:
  4042 ;;		On entry : 0/0
  4043 ;;		On exit  : 0/0
  4044 ;;		Unchanged: 0/0
  4045 ;; Data sizes:     COMRAM   BANK0   BANK1   BANK2   BANK3   BANK4   BANK5   BANK6   BANK7
  4046 ;;      Params:         0       0       0       0       0       0       0       0       0
  4047 ;;      Locals:         0       0       0       0       0       0       0       0       0
  4048 ;;      Temps:          0       0       0       0       0       0       0       0       0
  4049 ;;      Totals:         0       0       0       0       0       0       0       0       0
  4050 ;;Total ram usage:        0 bytes
  4051 ;; Hardware stack levels used:    1
  4052 ;; This function calls:
  4053 ;;		Nothing
  4054 ;; This function is called by:
  4055 ;;		_USBDeviceTasks
  4056 ;; This function uses a non-reentrant model
  4057 ;;
  4058                           
  4059                           	psect	text20
  4060  002518                     __ptext20:
  4061                           	opt stack 0
  4062  002518                     _USBIncrement1msInternalTimers:
  4063                           	opt stack 23
  4064                           
  4065                           ;usb_device.c: 3033: USB1msTickCount++;
  4066                           
  4067                           ;incstack = 0
  4068  002518  0E01               	movlw	1
  4069  00251A  2601               	addwf	_USB1msTickCount,f,c	;volatile
  4070  00251C  0E00               	movlw	0
  4071  00251E  2202               	addwfc	_USB1msTickCount+1,f,c	;volatile
  4072  002520  2203               	addwfc	_USB1msTickCount+2,f,c	;volatile
  4073  002522  2204               	addwfc	_USB1msTickCount+3,f,c	;volatile
  4074                           
  4075                           ;usb_device.c: 3034: if(USBBusIsSuspended == 0)
  4076  002524  5024               	movf	_USBBusIsSuspended,w,c	;volatile
  4077  002526  A4D8               	btfss	status,2,c
  4078  002528  0012               	return	
  4079                           
  4080                           ;usb_device.c: 3035: {
  4081                           ;usb_device.c: 3036: USBTicksSinceSuspendEnd++;
  4082  00252A  2A1B               	incf	_USBTicksSinceSuspendEnd,f,c	;volatile
  4083                           
  4084                           ;usb_device.c: 3038: if(USBTicksSinceSuspendEnd == 0)
  4085  00252C  501B               	movf	_USBTicksSinceSuspendEnd,w,c	;volatile
  4086  00252E  A4D8               	btfss	status,2,c
  4087  002530  0012               	return	
  4088                           
  4089                           ;usb_device.c: 3039: {
  4090                           ;usb_device.c: 3040: USBTicksSinceSuspendEnd = 255;
  4091  002532  681B               	setf	_USBTicksSinceSuspendEnd,c	;volatile
  4092  002534  0012               	return	
  4093  002536                     __end_of_USBIncrement1msInternalTimers:
  4094                           	opt stack 0
  4095                           pclatu	equ	0xFFB
  4096                           pclath	equ	0xFFA
  4097                           tblptru	equ	0xFF8
  4098                           tblptrh	equ	0xFF7
  4099                           tblptrl	equ	0xFF6
  4100                           tablat	equ	0xFF5
  4101                           prodh	equ	0xFF4
  4102                           prodl	equ	0xFF3
  4103                           intcon	equ	0xFF2
  4104                           postinc0	equ	0xFEE
  4105                           fsr0h	equ	0xFEA
  4106                           fsr0l	equ	0xFE9
  4107                           wreg	equ	0xFE8
  4108                           indf1	equ	0xFE7
  4109                           fsr1h	equ	0xFE2
  4110                           fsr1l	equ	0xFE1
  4111                           bsr	equ	0xFE0
  4112                           indf2	equ	0xFDF
  4113                           postinc2	equ	0xFDE
  4114                           postdec2	equ	0xFDD
  4115                           plusw2	equ	0xFDB
  4116                           fsr2h	equ	0xFDA
  4117                           fsr2l	equ	0xFD9
  4118                           status	equ	0xFD8
  4119                           
  4120 ;; *************** function _USBCtrlEPService *****************
  4121 ;; Defined at:
  4122 ;;		line 2372 in file "../mla/v2017_03_06/framework/usb/src/usb_device.c"
  4123 ;; Parameters:    Size  Location     Type
  4124 ;;		None
  4125 ;; Auto vars:     Size  Location     Type
  4126 ;;		None
  4127 ;; Return value:  Size  Location     Type
  4128 ;;                  1    wreg      void 
  4129 ;; Registers used:
  4130 ;;		wreg, fsr1l, fsr1h, fsr2l, fsr2h, status,2, status,0, pclath, tosl, tblptrl, tblptrh, tblptru, prodl, prodh, cstack
  4131 ;; Tracked objects:
  4132 ;;		On entry : 0/0
  4133 ;;		On exit  : 0/0
  4134 ;;		Unchanged: 0/0
  4135 ;; Data sizes:     COMRAM   BANK0   BANK1   BANK2   BANK3   BANK4   BANK5   BANK6   BANK7
  4136 ;;      Params:         0       0       0       0       0       0       0       0       0
  4137 ;;      Locals:         0       0       0       0       0       0       0       0       0
  4138 ;;      Temps:          1       0       0       0       0       0       0       0       0
  4139 ;;      Totals:         1       0       0       0       0       0       0       0       0
  4140 ;;Total ram usage:        1 bytes
  4141 ;; Hardware stack levels used:    1
  4142 ;; Hardware stack levels required when called:    8
  4143 ;; This function calls:
  4144 ;;		_USBCtrlTrfInHandler
  4145 ;;		_USBCtrlTrfOutHandler
  4146 ;;		_USBCtrlTrfSetupHandler
  4147 ;;		_memcpy
  4148 ;; This function is called by:
  4149 ;;		_USBDeviceTasks
  4150 ;; This function uses a non-reentrant model
  4151 ;;
  4152                           
  4153                           	psect	text21
  4154  001ECE                     __ptext21:
  4155                           	opt stack 0
  4156  001ECE                     _USBCtrlEPService:
  4157                           	opt stack 15
  4158                           
  4159                           ;usb_device.c: 2378: USBStatusStageTimeoutCounter = (uint8_t)45;
  4160                           
  4161                           ;incstack = 0
  4162  001ECE  0E2D               	movlw	45
  4163  001ED0  6E21               	movwf	_USBStatusStageTimeoutCounter,c	;volatile
  4164                           
  4165                           ;usb_device.c: 2382: if((USTATcopy.Val & ~0x02) == 0x00)
  4166  001ED2  C02B  F048         	movff	_USTATcopy,??_USBCtrlEPService	;volatile
  4167  001ED6  0EFD               	movlw	253
  4168  001ED8  1648               	andwf	??_USBCtrlEPService,f,c
  4169  001EDA  A4D8               	btfss	status,2,c
  4170  001EDC  D03B               	goto	i2l3728
  4171                           
  4172                           ;usb_device.c: 2383: {
  4173                           ;usb_device.c: 2386: pBDTEntryEP0OutCurrent = (volatile BDT_ENTRY*)&BDT[(USTATcopy.Val &
      +                           0x7E)>>1];
  4174  001EDE  C02B  F048         	movff	_USTATcopy,??_USBCtrlEPService	;volatile
  4175  001EE2  90D8               	bcf	status,0,c
  4176  001EE4  3248               	rrcf	??_USBCtrlEPService,f,c
  4177  001EE6  0E3F               	movlw	63
  4178  001EE8  1648               	andwf	??_USBCtrlEPService,f,c
  4179  001EEA  5048               	movf	??_USBCtrlEPService,w,c
  4180  001EEC  0D04               	mullw	4
  4181  001EEE  0E00               	movlw	0
  4182  001EF0  24F3               	addwf	prodl,w,c
  4183  001EF2  6E11               	movwf	_pBDTEntryEP0OutCurrent,c
  4184  001EF4  0E04               	movlw	4
  4185  001EF6  20F4               	addwfc	prodh,w,c
  4186  001EF8  6E12               	movwf	_pBDTEntryEP0OutCurrent+1,c
  4187                           
  4188                           ;usb_device.c: 2394: pBDTEntryEP0OutNext = pBDTEntryEP0OutCurrent;
  4189  001EFA  C011  F00F         	movff	_pBDTEntryEP0OutCurrent,_pBDTEntryEP0OutNext
  4190  001EFE  C012  F010         	movff	_pBDTEntryEP0OutCurrent+1,_pBDTEntryEP0OutNext+1
  4191                           
  4192                           ;usb_device.c: 2396: pBDTEntryEP0OutNext = (volatile BDT_ENTRY*)(((uintptr_t)pBDTEntryEP
      +                          0OutNext) ^ 0x0004);
  4193  001F02  0E04               	movlw	4
  4194  001F04  180F               	xorwf	_pBDTEntryEP0OutNext,w,c
  4195  001F06  6E0F               	movwf	_pBDTEntryEP0OutNext,c
  4196  001F08  5010               	movf	_pBDTEntryEP0OutNext+1,w,c
  4197  001F0A  6E10               	movwf	_pBDTEntryEP0OutNext+1,c
  4198                           
  4199                           ;usb_device.c: 2399: if(pBDTEntryEP0OutCurrent->STAT.PID == 0xD)
  4200  001F0C  C011  FFD9         	movff	_pBDTEntryEP0OutCurrent,fsr2l
  4201  001F10  C012  FFDA         	movff	_pBDTEntryEP0OutCurrent+1,fsr2h
  4202  001F14  30DF               	rrcf	indf2,w,c
  4203  001F16  32E8               	rrcf	wreg,f,c
  4204  001F18  0B0F               	andlw	15
  4205  001F1A  0A0D               	xorlw	13
  4206  001F1C  A4D8               	btfss	status,2,c
  4207  001F1E  D017               	goto	i2l3726
  4208                           
  4209                           ;usb_device.c: 2400: {
  4210                           ;usb_device.c: 2405: memcpy((uint8_t*)&SetupPkt, (uint8_t*)((void *)(pBDTEntryEP0OutCurr
      +                          ent->ADR)), 8);
  4211  001F20  0E30               	movlw	48
  4212  001F22  6E2D               	movwf	memcpy@d1,c
  4213  001F24  0E04               	movlw	4
  4214  001F26  6E2E               	movwf	memcpy@d1+1,c
  4215  001F28  EE20 F002          	lfsr	2,2
  4216  001F2C  5011               	movf	_pBDTEntryEP0OutCurrent,w,c
  4217  001F2E  26D9               	addwf	fsr2l,f,c
  4218  001F30  5012               	movf	_pBDTEntryEP0OutCurrent+1,w,c
  4219  001F32  22DA               	addwfc	fsr2h,f,c
  4220  001F34  CFDE F02F          	movff	postinc2,memcpy@s1
  4221  001F38  CFDD F030          	movff	postdec2,memcpy@s1+1
  4222  001F3C  0E00               	movlw	0
  4223  001F3E  6E32               	movwf	memcpy@n+1,c
  4224  001F40  0E08               	movlw	8
  4225  001F42  6E31               	movwf	memcpy@n,c
  4226  001F44  EC6B  F011         	call	_memcpy	;wreg free
  4227                           
  4228                           ;usb_device.c: 2408: USBCtrlTrfSetupHandler();
  4229  001F48  ECC5  F00E         	call	_USBCtrlTrfSetupHandler	;wreg free
  4230                           
  4231                           ;usb_device.c: 2409: }
  4232  001F4C  0012               	return	
  4233  001F4E                     i2l3726:
  4234                           
  4235                           ;usb_device.c: 2410: else
  4236                           ;usb_device.c: 2411: {
  4237                           ;usb_device.c: 2413: USBCtrlTrfOutHandler();
  4238  001F4E  EC10  F011         	call	_USBCtrlTrfOutHandler	;wreg free
  4239                           
  4240                           ;usb_device.c: 2414: }
  4241                           ;usb_device.c: 2415: }
  4242  001F52  0012               	return	
  4243  001F54                     i2l3728:
  4244                           
  4245                           ;usb_device.c: 2416: else if((USTATcopy.Val & ~0x02) == 0x04)
  4246  001F54  502B               	movf	_USTATcopy,w,c	;volatile
  4247  001F56  0BFD               	andlw	253
  4248  001F58  0A04               	xorlw	4
  4249  001F5A  A4D8               	btfss	status,2,c
  4250  001F5C  0012               	return	
  4251                           
  4252                           ;usb_device.c: 2417: {
  4253                           ;usb_device.c: 2420: USBCtrlTrfInHandler();
  4254  001F5E  EC95  F00A         	call	_USBCtrlTrfInHandler	;wreg free
  4255  001F62  0012               	return	
  4256  001F64                     __end_of_USBCtrlEPService:
  4257                           	opt stack 0
  4258                           pclatu	equ	0xFFB
  4259                           pclath	equ	0xFFA
  4260                           tblptru	equ	0xFF8
  4261                           tblptrh	equ	0xFF7
  4262                           tblptrl	equ	0xFF6
  4263                           tablat	equ	0xFF5
  4264                           prodh	equ	0xFF4
  4265                           prodl	equ	0xFF3
  4266                           intcon	equ	0xFF2
  4267                           postinc0	equ	0xFEE
  4268                           fsr0h	equ	0xFEA
  4269                           fsr0l	equ	0xFE9
  4270                           wreg	equ	0xFE8
  4271                           indf1	equ	0xFE7
  4272                           fsr1h	equ	0xFE2
  4273                           fsr1l	equ	0xFE1
  4274                           bsr	equ	0xFE0
  4275                           indf2	equ	0xFDF
  4276                           postinc2	equ	0xFDE
  4277                           postdec2	equ	0xFDD
  4278                           plusw2	equ	0xFDB
  4279                           fsr2h	equ	0xFDA
  4280                           fsr2l	equ	0xFD9
  4281                           status	equ	0xFD8
  4282                           
  4283 ;; *************** function _memcpy *****************
  4284 ;; Defined at:
  4285 ;;		line 27 in file "D:\Program Files (x86)\Microchip\xc8\v1.42\sources\common\memcpy.c"
  4286 ;; Parameters:    Size  Location     Type
  4287 ;;  d1              2    0[COMRAM] PTR void 
  4288 ;;		 -> SetupPkt(8), 
  4289 ;;  s1              2    2[COMRAM] PTR const void 
  4290 ;;		 -> CtrlTrfData(8), RAM(2047), SetupPkt(8), 
  4291 ;;  n               2    4[COMRAM] unsigned int 
  4292 ;; Auto vars:     Size  Location     Type
  4293 ;;  s               2    8[COMRAM] PTR const unsigned char 
  4294 ;;		 -> CtrlTrfData(8), RAM(2047), SetupPkt(8), 
  4295 ;;  d               2    6[COMRAM] PTR unsigned char 
  4296 ;;		 -> SetupPkt(8), 
  4297 ;;  tmp             1   10[COMRAM] unsigned char 
  4298 ;; Return value:  Size  Location     Type
  4299 ;;                  2    0[COMRAM] PTR void 
  4300 ;; Registers used:
  4301 ;;		wreg, fsr2l, fsr2h, status,2, status,0
  4302 ;; Tracked objects:
  4303 ;;		On entry : 0/0
  4304 ;;		On exit  : 0/0
  4305 ;;		Unchanged: 0/0
  4306 ;; Data sizes:     COMRAM   BANK0   BANK1   BANK2   BANK3   BANK4   BANK5   BANK6   BANK7
  4307 ;;      Params:         6       0       0       0       0       0       0       0       0
  4308 ;;      Locals:         5       0       0       0       0       0       0       0       0
  4309 ;;      Temps:          0       0       0       0       0       0       0       0       0
  4310 ;;      Totals:        11       0       0       0       0       0       0       0       0
  4311 ;;Total ram usage:       11 bytes
  4312 ;; Hardware stack levels used:    1
  4313 ;; This function calls:
  4314 ;;		Nothing
  4315 ;; This function is called by:
  4316 ;;		_USBCtrlEPService
  4317 ;; This function uses a non-reentrant model
  4318 ;;
  4319                           
  4320                           	psect	text22
  4321  0022D6                     __ptext22:
  4322                           	opt stack 0
  4323  0022D6                     _memcpy:
  4324                           	opt stack 22
  4325                           
  4326                           ;incstack = 0
  4327  0022D6  C02F  F035         	movff	memcpy@s1,memcpy@s
  4328  0022DA  C030  F036         	movff	memcpy@s1+1,memcpy@s+1
  4329  0022DE  C02D  F033         	movff	memcpy@d1,memcpy@d
  4330  0022E2  C02E  F034         	movff	memcpy@d1+1,memcpy@d+1
  4331  0022E6  D010               	goto	i2l3410
  4332  0022E8                     i2l3402:
  4333  0022E8  C035  FFD9         	movff	memcpy@s,fsr2l
  4334  0022EC  C036  FFDA         	movff	memcpy@s+1,fsr2h
  4335  0022F0  50DF               	movf	indf2,w,c
  4336  0022F2  6E37               	movwf	memcpy@tmp,c
  4337  0022F4  4A35               	infsnz	memcpy@s,f,c
  4338  0022F6  2A36               	incf	memcpy@s+1,f,c
  4339  0022F8  C033  FFD9         	movff	memcpy@d,fsr2l
  4340  0022FC  C034  FFDA         	movff	memcpy@d+1,fsr2h
  4341  002300  C037  FFDF         	movff	memcpy@tmp,indf2
  4342  002304  4A33               	infsnz	memcpy@d,f,c
  4343  002306  2A34               	incf	memcpy@d+1,f,c
  4344  002308                     i2l3410:
  4345  002308  0631               	decf	memcpy@n,f,c
  4346  00230A  A0D8               	btfss	status,0,c
  4347  00230C  0632               	decf	memcpy@n+1,f,c
  4348  00230E  2831               	incf	memcpy@n,w,c
  4349  002310  E1EB               	bnz	i2l3402
  4350  002312  2832               	incf	memcpy@n+1,w,c
  4351  002314  B4D8               	btfsc	status,2,c
  4352  002316  0012               	return	
  4353  002318  D7E7               	goto	i2l3402
  4354  00231A                     __end_of_memcpy:
  4355                           	opt stack 0
  4356                           pclatu	equ	0xFFB
  4357                           pclath	equ	0xFFA
  4358                           tblptru	equ	0xFF8
  4359                           tblptrh	equ	0xFF7
  4360                           tblptrl	equ	0xFF6
  4361                           tablat	equ	0xFF5
  4362                           prodh	equ	0xFF4
  4363                           prodl	equ	0xFF3
  4364                           intcon	equ	0xFF2
  4365                           postinc0	equ	0xFEE
  4366                           fsr0h	equ	0xFEA
  4367                           fsr0l	equ	0xFE9
  4368                           wreg	equ	0xFE8
  4369                           indf1	equ	0xFE7
  4370                           fsr1h	equ	0xFE2
  4371                           fsr1l	equ	0xFE1
  4372                           bsr	equ	0xFE0
  4373                           indf2	equ	0xFDF
  4374                           postinc2	equ	0xFDE
  4375                           postdec2	equ	0xFDD
  4376                           plusw2	equ	0xFDB
  4377                           fsr2h	equ	0xFDA
  4378                           fsr2l	equ	0xFD9
  4379                           status	equ	0xFD8
  4380                           
  4381 ;; *************** function _USBCtrlTrfSetupHandler *****************
  4382 ;; Defined at:
  4383 ;;		line 2465 in file "../mla/v2017_03_06/framework/usb/src/usb_device.c"
  4384 ;; Parameters:    Size  Location     Type
  4385 ;;		None
  4386 ;; Auto vars:     Size  Location     Type
  4387 ;;		None
  4388 ;; Return value:  Size  Location     Type
  4389 ;;                  1    wreg      void 
  4390 ;; Registers used:
  4391 ;;		wreg, fsr1l, fsr1h, fsr2l, fsr2h, status,2, status,0, tblptrl, tblptrh, tblptru, prodl, prodh, cstack
  4392 ;; Tracked objects:
  4393 ;;		On entry : 0/0
  4394 ;;		On exit  : 0/0
  4395 ;;		Unchanged: 0/0
  4396 ;; Data sizes:     COMRAM   BANK0   BANK1   BANK2   BANK3   BANK4   BANK5   BANK6   BANK7
  4397 ;;      Params:         0       0       0       0       0       0       0       0       0
  4398 ;;      Locals:         0       0       0       0       0       0       0       0       0
  4399 ;;      Temps:          0       0       0       0       0       0       0       0       0
  4400 ;;      Totals:         0       0       0       0       0       0       0       0       0
  4401 ;;Total ram usage:        0 bytes
  4402 ;; Hardware stack levels used:    1
  4403 ;; Hardware stack levels required when called:    7
  4404 ;; This function calls:
  4405 ;;		_USBCheckStdRequest
  4406 ;;		_USBCtrlEPServiceComplete
  4407 ;;		_USER_USB_CALLBACK_EVENT_HANDLER
  4408 ;; This function is called by:
  4409 ;;		_USBCtrlEPService
  4410 ;; This function uses a non-reentrant model
  4411 ;;
  4412                           
  4413                           	psect	text23
  4414  001D8A                     __ptext23:
  4415                           	opt stack 0
  4416  001D8A                     _USBCtrlTrfSetupHandler:
  4417                           	opt stack 15
  4418                           
  4419                           ;usb_device.c: 2470: shortPacketStatus = 0;
  4420                           
  4421                           ;incstack = 0
  4422  001D8A  0E00               	movlw	0
  4423  001D8C  6E27               	movwf	_shortPacketStatus,c	;volatile
  4424                           
  4425                           ;usb_device.c: 2471: USBDeferStatusStagePacket = 0;
  4426  001D8E  0E00               	movlw	0
  4427  001D90  6E20               	movwf	_USBDeferStatusStagePacket,c	;volatile
  4428                           
  4429                           ;usb_device.c: 2472: USBDeferINDataStagePackets = 0;
  4430  001D92  0E00               	movlw	0
  4431  001D94  6E1D               	movwf	_USBDeferINDataStagePackets,c	;volatile
  4432                           
  4433                           ;usb_device.c: 2473: USBDeferOUTDataStagePackets = 0;
  4434  001D96  0E00               	movlw	0
  4435  001D98  6E1C               	movwf	_USBDeferOUTDataStagePackets,c	;volatile
  4436                           
  4437                           ;usb_device.c: 2474: BothEP0OutUOWNsSet = 0;
  4438  001D9A  0E00               	movlw	0
  4439  001D9C  6E22               	movwf	_BothEP0OutUOWNsSet,c	;volatile
  4440                           
  4441                           ;usb_device.c: 2475: controlTransferState = 0;
  4442  001D9E  0E00               	movlw	0
  4443  001DA0  6E26               	movwf	_controlTransferState,c	;volatile
  4444                           
  4445                           ;usb_device.c: 2484: pBDTEntryIn[0]->STAT.Val &= ~(0x80);
  4446  001DA2  C06E  FFD9         	movff	_pBDTEntryIn,fsr2l
  4447  001DA6  C06F  FFDA         	movff	_pBDTEntryIn+1,fsr2h
  4448  001DAA  0E7F               	movlw	127
  4449  001DAC  16DF               	andwf	indf2,f,c
  4450                           
  4451                           ;usb_device.c: 2486: pBDTEntryIn[0] = (volatile BDT_ENTRY*)(((uintptr_t)pBDTEntryIn[0]) 
      +                          ^ 0x0004);
  4452  001DAE  0E04               	movlw	4
  4453  001DB0  0100               	movlb	0	; () banked
  4454  001DB2  196E               	xorwf	_pBDTEntryIn& (0+255),w,b
  4455  001DB4  0100               	movlb	0	; () banked
  4456  001DB6  6F6E               	movwf	_pBDTEntryIn& (0+255),b
  4457  001DB8  0100               	movlb	0	; () banked
  4458  001DBA  516F               	movf	(_pBDTEntryIn+1)& (0+255),w,b
  4459  001DBC  0100               	movlb	0	; () banked
  4460  001DBE  6F6F               	movwf	(_pBDTEntryIn+1)& (0+255),b
  4461                           
  4462                           ; BSR set to: 0
  4463                           ;usb_device.c: 2487: pBDTEntryIn[0]->STAT.Val &= ~(0x80);
  4464  001DC0  C06E  FFD9         	movff	_pBDTEntryIn,fsr2l
  4465  001DC4  C06F  FFDA         	movff	_pBDTEntryIn+1,fsr2h
  4466  001DC8  0E7F               	movlw	127
  4467  001DCA  16DF               	andwf	indf2,f,c
  4468                           
  4469                           ; BSR set to: 0
  4470                           ;usb_device.c: 2488: pBDTEntryIn[0] = (volatile BDT_ENTRY*)(((uintptr_t)pBDTEntryIn[0]) 
      +                          ^ 0x0004);
  4471  001DCC  0E04               	movlw	4
  4472  001DCE  0100               	movlb	0	; () banked
  4473  001DD0  196E               	xorwf	_pBDTEntryIn& (0+255),w,b
  4474  001DD2  0100               	movlb	0	; () banked
  4475  001DD4  6F6E               	movwf	_pBDTEntryIn& (0+255),b
  4476  001DD6  0100               	movlb	0	; () banked
  4477  001DD8  516F               	movf	(_pBDTEntryIn+1)& (0+255),w,b
  4478  001DDA  0100               	movlb	0	; () banked
  4479  001DDC  6F6F               	movwf	(_pBDTEntryIn+1)& (0+255),b
  4480                           
  4481                           ; BSR set to: 0
  4482                           ;usb_device.c: 2489: pBDTEntryEP0OutNext->STAT.Val &= ~(0x80);
  4483  001DDE  C00F  FFD9         	movff	_pBDTEntryEP0OutNext,fsr2l
  4484  001DE2  C010  FFDA         	movff	_pBDTEntryEP0OutNext+1,fsr2h
  4485  001DE6  0E7F               	movlw	127
  4486  001DE8  16DF               	andwf	indf2,f,c
  4487                           
  4488                           ; BSR set to: 0
  4489                           ;usb_device.c: 2491: inPipes[0].info.Val = 0;
  4490  001DEA  0E00               	movlw	0
  4491  001DEC  0100               	movlb	0	; () banked
  4492  001DEE  6F6B               	movwf	(_inPipes+3)& (0+255),b	;volatile
  4493                           
  4494                           ; BSR set to: 0
  4495                           ;usb_device.c: 2492: inPipes[0].wCount.Val = 0;
  4496  001DF0  0E00               	movlw	0
  4497  001DF2  0100               	movlb	0	; () banked
  4498  001DF4  6F6D               	movwf	(_inPipes+5)& (0+255),b	;volatile
  4499  001DF6  0E00               	movlw	0
  4500  001DF8  6F6C               	movwf	(_inPipes+4)& (0+255),b	;volatile
  4501                           
  4502                           ; BSR set to: 0
  4503                           ;usb_device.c: 2493: outPipes[0].info.Val = 0;
  4504  001DFA  0E00               	movlw	0
  4505  001DFC  0100               	movlb	0	; () banked
  4506  001DFE  6F63               	movwf	(_outPipes+3)& (0+255),b	;volatile
  4507                           
  4508                           ; BSR set to: 0
  4509                           ;usb_device.c: 2494: outPipes[0].wCount.Val = 0;
  4510  001E00  0E00               	movlw	0
  4511  001E02  0100               	movlb	0	; () banked
  4512  001E04  6F65               	movwf	(_outPipes+5)& (0+255),b	;volatile
  4513  001E06  0E00               	movlw	0
  4514  001E08  6F64               	movwf	(_outPipes+4)& (0+255),b	;volatile
  4515                           
  4516                           ; BSR set to: 0
  4517                           ;usb_device.c: 2500: USBCheckStdRequest();
  4518  001E0A  EC8A  F00B         	call	_USBCheckStdRequest	;wreg free
  4519                           
  4520                           ;usb_device.c: 2501: USER_USB_CALLBACK_EVENT_HANDLER(EVENT_EP0_REQUEST,0,0);
  4521  001E0E  0E00               	movlw	0
  4522  001E10  6E3B               	movwf	USER_USB_CALLBACK_EVENT_HANDLER@event+1,c
  4523  001E12  0E03               	movlw	3
  4524  001E14  6E3A               	movwf	USER_USB_CALLBACK_EVENT_HANDLER@event,c
  4525  001E16  0E00               	movlw	0
  4526  001E18  6E3C               	movwf	USER_USB_CALLBACK_EVENT_HANDLER@pdata,c
  4527  001E1A  0E00               	movlw	0
  4528  001E1C  6E3D               	movwf	USER_USB_CALLBACK_EVENT_HANDLER@pdata+1,c
  4529  001E1E  0E00               	movlw	0
  4530  001E20  6E3F               	movwf	USER_USB_CALLBACK_EVENT_HANDLER@size+1,c
  4531  001E22  0E00               	movlw	0
  4532  001E24  6E3E               	movwf	USER_USB_CALLBACK_EVENT_HANDLER@size,c
  4533  001E26  ECE2  F010         	call	_USER_USB_CALLBACK_EVENT_HANDLER	;wreg free
  4534                           
  4535                           ;usb_device.c: 2514: USBCtrlEPServiceComplete();
  4536  001E2A  EC10  F00B         	call	_USBCtrlEPServiceComplete	;wreg free
  4537  001E2E  0012               	return		;funcret
  4538  001E30                     __end_of_USBCtrlTrfSetupHandler:
  4539                           	opt stack 0
  4540                           pclatu	equ	0xFFB
  4541                           pclath	equ	0xFFA
  4542                           tblptru	equ	0xFF8
  4543                           tblptrh	equ	0xFF7
  4544                           tblptrl	equ	0xFF6
  4545                           tablat	equ	0xFF5
  4546                           prodh	equ	0xFF4
  4547                           prodl	equ	0xFF3
  4548                           intcon	equ	0xFF2
  4549                           postinc0	equ	0xFEE
  4550                           fsr0h	equ	0xFEA
  4551                           fsr0l	equ	0xFE9
  4552                           wreg	equ	0xFE8
  4553                           indf1	equ	0xFE7
  4554                           fsr1h	equ	0xFE2
  4555                           fsr1l	equ	0xFE1
  4556                           bsr	equ	0xFE0
  4557                           indf2	equ	0xFDF
  4558                           postinc2	equ	0xFDE
  4559                           postdec2	equ	0xFDD
  4560                           plusw2	equ	0xFDB
  4561                           fsr2h	equ	0xFDA
  4562                           fsr2l	equ	0xFD9
  4563                           status	equ	0xFD8
  4564                           
  4565 ;; *************** function _USBCtrlEPServiceComplete *****************
  4566 ;; Defined at:
  4567 ;;		line 1616 in file "../mla/v2017_03_06/framework/usb/src/usb_device.c"
  4568 ;; Parameters:    Size  Location     Type
  4569 ;;		None
  4570 ;; Auto vars:     Size  Location     Type
  4571 ;;		None
  4572 ;; Return value:  Size  Location     Type
  4573 ;;                  1    wreg      void 
  4574 ;; Registers used:
  4575 ;;		wreg, fsr1l, fsr1h, fsr2l, fsr2h, status,2, status,0, tblptrl, tblptrh, tblptru, cstack
  4576 ;; Tracked objects:
  4577 ;;		On entry : 0/0
  4578 ;;		On exit  : 0/0
  4579 ;;		Unchanged: 0/0
  4580 ;; Data sizes:     COMRAM   BANK0   BANK1   BANK2   BANK3   BANK4   BANK5   BANK6   BANK7
  4581 ;;      Params:         0       0       0       0       0       0       0       0       0
  4582 ;;      Locals:         0       0       0       0       0       0       0       0       0
  4583 ;;      Temps:          0       0       0       0       0       0       0       0       0
  4584 ;;      Totals:         0       0       0       0       0       0       0       0       0
  4585 ;;Total ram usage:        0 bytes
  4586 ;; Hardware stack levels used:    1
  4587 ;; Hardware stack levels required when called:    2
  4588 ;; This function calls:
  4589 ;;		_USBCtrlEPAllowDataStage
  4590 ;;		_USBCtrlEPAllowStatusStage
  4591 ;; This function is called by:
  4592 ;;		_USBCtrlTrfSetupHandler
  4593 ;; This function uses a non-reentrant model
  4594 ;;
  4595                           
  4596                           	psect	text24
  4597  001620                     __ptext24:
  4598                           	opt stack 0
  4599  001620                     _USBCtrlEPServiceComplete:
  4600                           	opt stack 19
  4601                           
  4602                           ;usb_device.c: 1622: UCONbits.PKTDIS = 0;
  4603                           
  4604                           ;incstack = 0
  4605  001620  986D               	bcf	3949,4,c	;volatile
  4606                           
  4607                           ;usb_device.c: 1628: if(inPipes[0].info.bits.busy == 0)
  4608  001622  0100               	movlb	0	; () banked
  4609  001624  BF6B               	btfsc	(_inPipes+3)& (0+255),7,b	;volatile
  4610  001626  D039               	goto	i2l321
  4611                           
  4612                           ; BSR set to: 0
  4613                           ;usb_device.c: 1629: {
  4614                           ;usb_device.c: 1630: if(outPipes[0].info.bits.busy == 1)
  4615  001628  0100               	movlb	0	; () banked
  4616  00162A  AF63               	btfss	(_outPipes+3)& (0+255),7,b	;volatile
  4617  00162C  D00B               	goto	i2l3276
  4618                           
  4619                           ; BSR set to: 0
  4620                           ;usb_device.c: 1631: {
  4621                           ;usb_device.c: 1632: controlTransferState = 2;
  4622  00162E  0E02               	movlw	2
  4623  001630  6E26               	movwf	_controlTransferState,c	;volatile
  4624                           
  4625                           ;usb_device.c: 1643: if(USBDeferOUTDataStagePackets == 0)
  4626  001632  501C               	movf	_USBDeferOUTDataStagePackets,w,c	;volatile
  4627  001634  B4D8               	btfsc	status,2,c
  4628                           
  4629                           ; BSR set to: 0
  4630                           ;usb_device.c: 1644: {
  4631                           ;usb_device.c: 1645: USBCtrlEPAllowDataStage();
  4632  001636  EC18  F00F         	call	_USBCtrlEPAllowDataStage	;wreg free
  4633                           
  4634                           ;usb_device.c: 1646: }
  4635                           ;usb_device.c: 1650: USBStatusStageEnabledFlag2 = 0;
  4636  00163A  0E00               	movlw	0
  4637  00163C  6E1E               	movwf	_USBStatusStageEnabledFlag2,c	;volatile
  4638                           
  4639                           ;usb_device.c: 1651: USBStatusStageEnabledFlag1 = 0;
  4640  00163E  0E00               	movlw	0
  4641  001640  6E1F               	movwf	_USBStatusStageEnabledFlag1,c	;volatile
  4642                           
  4643                           ;usb_device.c: 1652: }
  4644  001642  0012               	return	
  4645  001644                     i2l3276:
  4646                           
  4647                           ;usb_device.c: 1653: else
  4648                           ;usb_device.c: 1654: {
  4649                           ;usb_device.c: 1659: pBDTEntryEP0OutNext->CNT = 8;
  4650  001644  EE20 F001          	lfsr	2,1
  4651  001648  500F               	movf	_pBDTEntryEP0OutNext,w,c
  4652  00164A  26D9               	addwf	fsr2l,f,c
  4653  00164C  5010               	movf	_pBDTEntryEP0OutNext+1,w,c
  4654  00164E  22DA               	addwfc	fsr2h,f,c
  4655  001650  0E08               	movlw	8
  4656  001652  6EDF               	movwf	indf2,c
  4657                           
  4658                           ;usb_device.c: 1660: pBDTEntryEP0OutNext->ADR = ((uint16_t)(&SetupPkt));
  4659  001654  EE20 F002          	lfsr	2,2
  4660  001658  500F               	movf	_pBDTEntryEP0OutNext,w,c
  4661  00165A  26D9               	addwf	fsr2l,f,c
  4662  00165C  5010               	movf	_pBDTEntryEP0OutNext+1,w,c
  4663  00165E  22DA               	addwfc	fsr2h,f,c
  4664  001660  0E30               	movlw	48
  4665  001662  6EDE               	movwf	postinc2,c
  4666  001664  0E04               	movlw	4
  4667  001666  6EDD               	movwf	postdec2,c
  4668                           
  4669                           ;usb_device.c: 1661: pBDTEntryEP0OutNext->STAT.Val = 0x00|(0x08 & 0x08)|0x04;
  4670  001668  C00F  FFD9         	movff	_pBDTEntryEP0OutNext,fsr2l
  4671  00166C  C010  FFDA         	movff	_pBDTEntryEP0OutNext+1,fsr2h
  4672  001670  0E0C               	movlw	12
  4673  001672  6EDF               	movwf	indf2,c
  4674                           
  4675                           ;usb_device.c: 1662: pBDTEntryEP0OutNext->STAT.Val |= 0x80;
  4676  001674  C00F  FFD9         	movff	_pBDTEntryEP0OutNext,fsr2l
  4677  001678  C010  FFDA         	movff	_pBDTEntryEP0OutNext+1,fsr2h
  4678  00167C  0E00               	movlw	0
  4679  00167E  8EDB               	bsf	plusw2,7,c
  4680                           
  4681                           ;usb_device.c: 1663: pBDTEntryIn[0]->STAT.Val = 0x04;
  4682  001680  C06E  FFD9         	movff	_pBDTEntryIn,fsr2l
  4683  001684  C06F  FFDA         	movff	_pBDTEntryIn+1,fsr2h
  4684  001688  0E04               	movlw	4
  4685  00168A  6EDF               	movwf	indf2,c
  4686                           
  4687                           ;usb_device.c: 1664: pBDTEntryIn[0]->STAT.Val |= 0x80;
  4688  00168C  C06E  FFD9         	movff	_pBDTEntryIn,fsr2l
  4689  001690  C06F  FFDA         	movff	_pBDTEntryIn+1,fsr2h
  4690  001694  0E00               	movlw	0
  4691  001696  8EDB               	bsf	plusw2,7,c
  4692                           
  4693                           ;usb_device.c: 1665: }
  4694                           ;usb_device.c: 1666: }
  4695  001698  0012               	return	
  4696  00169A                     i2l321:
  4697                           
  4698                           ; BSR set to: 0
  4699                           ;usb_device.c: 1667: else
  4700                           ;usb_device.c: 1668: {
  4701                           ;usb_device.c: 1669: if(SetupPkt.DataDir == (0x80>>7))
  4702  00169A  0104               	movlb	4	; () banked
  4703  00169C  AF30               	btfss	48,7,b	;volatile
  4704  00169E  D010               	goto	i2l3296
  4705                           
  4706                           ; BSR set to: 4
  4707                           ;usb_device.c: 1670: {
  4708                           ;usb_device.c: 1671: controlTransferState = 1;
  4709  0016A0  0E01               	movlw	1
  4710  0016A2  6E26               	movwf	_controlTransferState,c	;volatile
  4711                           
  4712                           ;usb_device.c: 1685: if(USBDeferINDataStagePackets == 0)
  4713  0016A4  501D               	movf	_USBDeferINDataStagePackets,w,c	;volatile
  4714  0016A6  B4D8               	btfsc	status,2,c
  4715                           
  4716                           ; BSR set to: 4
  4717                           ;usb_device.c: 1686: {
  4718                           ;usb_device.c: 1687: USBCtrlEPAllowDataStage();
  4719  0016A8  EC18  F00F         	call	_USBCtrlEPAllowDataStage	;wreg free
  4720                           
  4721                           ;usb_device.c: 1688: }
  4722                           ;usb_device.c: 1710: USBStatusStageEnabledFlag2 = 0;
  4723  0016AC  0E00               	movlw	0
  4724  0016AE  6E1E               	movwf	_USBStatusStageEnabledFlag2,c	;volatile
  4725                           
  4726                           ;usb_device.c: 1711: USBStatusStageEnabledFlag1 = 0;
  4727  0016B0  0E00               	movlw	0
  4728  0016B2  6E1F               	movwf	_USBStatusStageEnabledFlag1,c	;volatile
  4729                           
  4730                           ;usb_device.c: 1712: if(USBDeferStatusStagePacket == 0)
  4731  0016B4  5020               	movf	_USBDeferStatusStagePacket,w,c	;volatile
  4732  0016B6  A4D8               	btfss	status,2,c
  4733  0016B8  0012               	return	
  4734                           
  4735                           ;usb_device.c: 1713: {
  4736                           ;usb_device.c: 1714: USBCtrlEPAllowStatusStage();
  4737  0016BA  ECA8  F00D         	call	_USBCtrlEPAllowStatusStage	;wreg free
  4738                           
  4739                           ;usb_device.c: 1715: }
  4740                           ;usb_device.c: 1716: }
  4741  0016BE  0012               	return	
  4742  0016C0                     i2l3296:
  4743                           
  4744                           ;usb_device.c: 1717: else
  4745                           ;usb_device.c: 1718: {
  4746                           ;usb_device.c: 1729: controlTransferState = 2;
  4747  0016C0  0E02               	movlw	2
  4748  0016C2  6E26               	movwf	_controlTransferState,c	;volatile
  4749                           
  4750                           ;usb_device.c: 1732: pBDTEntryEP0OutNext->CNT = 8;
  4751  0016C4  EE20 F001          	lfsr	2,1
  4752  0016C8  500F               	movf	_pBDTEntryEP0OutNext,w,c
  4753  0016CA  26D9               	addwf	fsr2l,f,c
  4754  0016CC  5010               	movf	_pBDTEntryEP0OutNext+1,w,c
  4755  0016CE  22DA               	addwfc	fsr2h,f,c
  4756  0016D0  0E08               	movlw	8
  4757  0016D2  6EDF               	movwf	indf2,c
  4758                           
  4759                           ;usb_device.c: 1733: pBDTEntryEP0OutNext->ADR = ((uint16_t)(&SetupPkt));
  4760  0016D4  EE20 F002          	lfsr	2,2
  4761  0016D8  500F               	movf	_pBDTEntryEP0OutNext,w,c
  4762  0016DA  26D9               	addwf	fsr2l,f,c
  4763  0016DC  5010               	movf	_pBDTEntryEP0OutNext+1,w,c
  4764  0016DE  22DA               	addwfc	fsr2h,f,c
  4765  0016E0  0E30               	movlw	48
  4766  0016E2  6EDE               	movwf	postinc2,c
  4767  0016E4  0E04               	movlw	4
  4768  0016E6  6EDD               	movwf	postdec2,c
  4769                           
  4770                           ;usb_device.c: 1734: pBDTEntryEP0OutNext->STAT.Val = 0x04;
  4771  0016E8  C00F  FFD9         	movff	_pBDTEntryEP0OutNext,fsr2l
  4772  0016EC  C010  FFDA         	movff	_pBDTEntryEP0OutNext+1,fsr2h
  4773  0016F0  0E04               	movlw	4
  4774  0016F2  6EDF               	movwf	indf2,c
  4775                           
  4776                           ;usb_device.c: 1735: pBDTEntryEP0OutNext->STAT.Val |= 0x80;
  4777  0016F4  C00F  FFD9         	movff	_pBDTEntryEP0OutNext,fsr2l
  4778  0016F8  C010  FFDA         	movff	_pBDTEntryEP0OutNext+1,fsr2h
  4779  0016FC  0E00               	movlw	0
  4780  0016FE  8EDB               	bsf	plusw2,7,c
  4781                           
  4782                           ;usb_device.c: 1738: USBStatusStageEnabledFlag2 = 0;
  4783  001700  0E00               	movlw	0
  4784  001702  6E1E               	movwf	_USBStatusStageEnabledFlag2,c	;volatile
  4785                           
  4786                           ;usb_device.c: 1739: USBStatusStageEnabledFlag1 = 0;
  4787  001704  0E00               	movlw	0
  4788  001706  6E1F               	movwf	_USBStatusStageEnabledFlag1,c	;volatile
  4789                           
  4790                           ;usb_device.c: 1740: if(USBDeferStatusStagePacket == 0)
  4791  001708  5020               	movf	_USBDeferStatusStagePacket,w,c	;volatile
  4792  00170A  A4D8               	btfss	status,2,c
  4793  00170C  0012               	return	
  4794                           
  4795                           ;usb_device.c: 1741: {
  4796                           ;usb_device.c: 1742: USBCtrlEPAllowStatusStage();
  4797  00170E  ECA8  F00D         	call	_USBCtrlEPAllowStatusStage	;wreg free
  4798  001712  0012               	return	
  4799  001714                     __end_of_USBCtrlEPServiceComplete:
  4800                           	opt stack 0
  4801                           pclatu	equ	0xFFB
  4802                           pclath	equ	0xFFA
  4803                           tblptru	equ	0xFF8
  4804                           tblptrh	equ	0xFF7
  4805                           tblptrl	equ	0xFF6
  4806                           tablat	equ	0xFF5
  4807                           prodh	equ	0xFF4
  4808                           prodl	equ	0xFF3
  4809                           intcon	equ	0xFF2
  4810                           postinc0	equ	0xFEE
  4811                           fsr0h	equ	0xFEA
  4812                           fsr0l	equ	0xFE9
  4813                           wreg	equ	0xFE8
  4814                           indf1	equ	0xFE7
  4815                           fsr1h	equ	0xFE2
  4816                           fsr1l	equ	0xFE1
  4817                           bsr	equ	0xFE0
  4818                           indf2	equ	0xFDF
  4819                           postinc2	equ	0xFDE
  4820                           postdec2	equ	0xFDD
  4821                           plusw2	equ	0xFDB
  4822                           fsr2h	equ	0xFDA
  4823                           fsr2l	equ	0xFD9
  4824                           status	equ	0xFD8
  4825                           
  4826 ;; *************** function _USBCtrlEPAllowDataStage *****************
  4827 ;; Defined at:
  4828 ;;		line 1488 in file "../mla/v2017_03_06/framework/usb/src/usb_device.c"
  4829 ;; Parameters:    Size  Location     Type
  4830 ;;		None
  4831 ;; Auto vars:     Size  Location     Type
  4832 ;;		None
  4833 ;; Return value:  Size  Location     Type
  4834 ;;                  1    wreg      void 
  4835 ;; Registers used:
  4836 ;;		wreg, fsr1l, fsr1h, fsr2l, fsr2h, status,2, status,0, tblptrl, tblptrh, tblptru, cstack
  4837 ;; Tracked objects:
  4838 ;;		On entry : 0/0
  4839 ;;		On exit  : 0/0
  4840 ;;		Unchanged: 0/0
  4841 ;; Data sizes:     COMRAM   BANK0   BANK1   BANK2   BANK3   BANK4   BANK5   BANK6   BANK7
  4842 ;;      Params:         0       0       0       0       0       0       0       0       0
  4843 ;;      Locals:         0       0       0       0       0       0       0       0       0
  4844 ;;      Temps:          0       0       0       0       0       0       0       0       0
  4845 ;;      Totals:         0       0       0       0       0       0       0       0       0
  4846 ;;Total ram usage:        0 bytes
  4847 ;; Hardware stack levels used:    1
  4848 ;; Hardware stack levels required when called:    1
  4849 ;; This function calls:
  4850 ;;		_USBCtrlTrfTxService
  4851 ;; This function is called by:
  4852 ;;		_USBCtrlEPServiceComplete
  4853 ;; This function uses a non-reentrant model
  4854 ;;
  4855                           
  4856                           	psect	text25
  4857  001E30                     __ptext25:
  4858                           	opt stack 0
  4859  001E30                     _USBCtrlEPAllowDataStage:
  4860                           	opt stack 19
  4861                           
  4862                           ;usb_device.c: 1490: USBDeferINDataStagePackets = 0;
  4863                           
  4864                           ;incstack = 0
  4865  001E30  0E00               	movlw	0
  4866  001E32  6E1D               	movwf	_USBDeferINDataStagePackets,c	;volatile
  4867                           
  4868                           ;usb_device.c: 1491: USBDeferOUTDataStagePackets = 0;
  4869  001E34  0E00               	movlw	0
  4870  001E36  6E1C               	movwf	_USBDeferOUTDataStagePackets,c	;volatile
  4871                           
  4872                           ;usb_device.c: 1493: if(controlTransferState == 2)
  4873  001E38  0E02               	movlw	2
  4874  001E3A  1826               	xorwf	_controlTransferState,w,c	;volatile
  4875  001E3C  A4D8               	btfss	status,2,c
  4876  001E3E  D01F               	goto	i2l3030
  4877                           
  4878                           ;usb_device.c: 1494: {
  4879                           ;usb_device.c: 1496: pBDTEntryEP0OutNext->CNT = 8;
  4880  001E40  EE20 F001          	lfsr	2,1
  4881  001E44  500F               	movf	_pBDTEntryEP0OutNext,w,c
  4882  001E46  26D9               	addwf	fsr2l,f,c
  4883  001E48  5010               	movf	_pBDTEntryEP0OutNext+1,w,c
  4884  001E4A  22DA               	addwfc	fsr2h,f,c
  4885  001E4C  0E08               	movlw	8
  4886  001E4E  6EDF               	movwf	indf2,c
  4887                           
  4888                           ;usb_device.c: 1497: pBDTEntryEP0OutNext->ADR = ((uint16_t)(&CtrlTrfData));
  4889  001E50  EE20 F002          	lfsr	2,2
  4890  001E54  500F               	movf	_pBDTEntryEP0OutNext,w,c
  4891  001E56  26D9               	addwf	fsr2l,f,c
  4892  001E58  5010               	movf	_pBDTEntryEP0OutNext+1,w,c
  4893  001E5A  22DA               	addwfc	fsr2h,f,c
  4894  001E5C  0E38               	movlw	56
  4895  001E5E  6EDE               	movwf	postinc2,c
  4896  001E60  0E04               	movlw	4
  4897  001E62  6EDD               	movwf	postdec2,c
  4898                           
  4899                           ;usb_device.c: 1498: pBDTEntryEP0OutNext->STAT.Val = 0x40|(0x08 & 0x08);
  4900  001E64  C00F  FFD9         	movff	_pBDTEntryEP0OutNext,fsr2l
  4901  001E68  C010  FFDA         	movff	_pBDTEntryEP0OutNext+1,fsr2h
  4902  001E6C  0E48               	movlw	72
  4903  001E6E  6EDF               	movwf	indf2,c
  4904                           
  4905                           ;usb_device.c: 1499: pBDTEntryEP0OutNext->STAT.Val |= 0x80;
  4906  001E70  C00F  FFD9         	movff	_pBDTEntryEP0OutNext,fsr2l
  4907  001E74  C010  FFDA         	movff	_pBDTEntryEP0OutNext+1,fsr2h
  4908  001E78  0E00               	movlw	0
  4909  001E7A  8EDB               	bsf	plusw2,7,c
  4910                           
  4911                           ;usb_device.c: 1500: }
  4912  001E7C  0012               	return	
  4913  001E7E                     i2l3030:
  4914                           
  4915                           ;usb_device.c: 1501: else
  4916                           ;usb_device.c: 1502: {
  4917                           ;usb_device.c: 1505: if(SetupPkt.wLength < inPipes[0].wCount.Val)
  4918  001E7E  0100               	movlb	0	; () banked
  4919  001E80  516C               	movf	(_inPipes+4)& (0+255),w,b	;volatile
  4920  001E82  0104               	movlb	4	; () banked
  4921  001E84  5D36               	subwf	54,w,b	;volatile
  4922  001E86  0100               	movlb	0	; () banked
  4923  001E88  516D               	movf	(_inPipes+5)& (0+255),w,b	;volatile
  4924  001E8A  0104               	movlb	4	; () banked
  4925  001E8C  5937               	subwfb	55,w,b	;volatile
  4926  001E8E  B0D8               	btfsc	status,0,c
  4927  001E90  D004               	goto	i2l3034
  4928                           
  4929                           ; BSR set to: 4
  4930                           ;usb_device.c: 1506: {
  4931                           ;usb_device.c: 1507: inPipes[0].wCount.Val = SetupPkt.wLength;
  4932  001E92  C436 F06C          	movff	1078,_inPipes+4	;volatile
  4933  001E96  C437 F06D          	movff	1079,_inPipes+5	;volatile
  4934  001E9A                     i2l3034:
  4935                           
  4936                           ; BSR set to: 4
  4937                           ;usb_device.c: 1508: }
  4938                           ;usb_device.c: 1509: USBCtrlTrfTxService();
  4939  001E9A  EC74  F00C         	call	_USBCtrlTrfTxService	;wreg free
  4940                           
  4941                           ;usb_device.c: 1514: pBDTEntryIn[0]->ADR = ((uint16_t)(&CtrlTrfData));
  4942  001E9E  0100               	movlb	0	; () banked
  4943  001EA0  EE20 F002          	lfsr	2,2
  4944  001EA4  516E               	movf	_pBDTEntryIn& (0+255),w,b
  4945  001EA6  26D9               	addwf	fsr2l,f,c
  4946  001EA8  516F               	movf	(_pBDTEntryIn+1)& (0+255),w,b
  4947  001EAA  22DA               	addwfc	fsr2h,f,c
  4948  001EAC  0E38               	movlw	56
  4949  001EAE  6EDE               	movwf	postinc2,c
  4950  001EB0  0E04               	movlw	4
  4951  001EB2  6EDD               	movwf	postdec2,c
  4952                           
  4953                           ; BSR set to: 0
  4954                           ;usb_device.c: 1515: pBDTEntryIn[0]->STAT.Val = 0x40|(0x08 & 0x08);
  4955  001EB4  C06E  FFD9         	movff	_pBDTEntryIn,fsr2l
  4956  001EB8  C06F  FFDA         	movff	_pBDTEntryIn+1,fsr2h
  4957  001EBC  0E48               	movlw	72
  4958  001EBE  6EDF               	movwf	indf2,c
  4959                           
  4960                           ; BSR set to: 0
  4961                           ;usb_device.c: 1516: pBDTEntryIn[0]->STAT.Val |= 0x80;
  4962  001EC0  C06E  FFD9         	movff	_pBDTEntryIn,fsr2l
  4963  001EC4  C06F  FFDA         	movff	_pBDTEntryIn+1,fsr2h
  4964  001EC8  0E00               	movlw	0
  4965  001ECA  8EDB               	bsf	plusw2,7,c
  4966  001ECC  0012               	return	
  4967  001ECE                     __end_of_USBCtrlEPAllowDataStage:
  4968                           	opt stack 0
  4969                           pclatu	equ	0xFFB
  4970                           pclath	equ	0xFFA
  4971                           tblptru	equ	0xFF8
  4972                           tblptrh	equ	0xFF7
  4973                           tblptrl	equ	0xFF6
  4974                           tablat	equ	0xFF5
  4975                           prodh	equ	0xFF4
  4976                           prodl	equ	0xFF3
  4977                           intcon	equ	0xFF2
  4978                           postinc0	equ	0xFEE
  4979                           fsr0h	equ	0xFEA
  4980                           fsr0l	equ	0xFE9
  4981                           wreg	equ	0xFE8
  4982                           indf1	equ	0xFE7
  4983                           fsr1h	equ	0xFE2
  4984                           fsr1l	equ	0xFE1
  4985                           bsr	equ	0xFE0
  4986                           indf2	equ	0xFDF
  4987                           postinc2	equ	0xFDE
  4988                           postdec2	equ	0xFDD
  4989                           plusw2	equ	0xFDB
  4990                           fsr2h	equ	0xFDA
  4991                           fsr2l	equ	0xFD9
  4992                           status	equ	0xFD8
  4993                           
  4994 ;; *************** function _USBCheckStdRequest *****************
  4995 ;; Defined at:
  4996 ;;		line 2686 in file "../mla/v2017_03_06/framework/usb/src/usb_device.c"
  4997 ;; Parameters:    Size  Location     Type
  4998 ;;		None
  4999 ;; Auto vars:     Size  Location     Type
  5000 ;;		None
  5001 ;; Return value:  Size  Location     Type
  5002 ;;                  1    wreg      void 
  5003 ;; Registers used:
  5004 ;;		wreg, fsr1l, fsr1h, fsr2l, fsr2h, status,2, status,0, tblptrl, tblptrh, tblptru, prodl, prodh, cstack
  5005 ;; Tracked objects:
  5006 ;;		On entry : 0/0
  5007 ;;		On exit  : 0/0
  5008 ;;		Unchanged: 0/0
  5009 ;; Data sizes:     COMRAM   BANK0   BANK1   BANK2   BANK3   BANK4   BANK5   BANK6   BANK7
  5010 ;;      Params:         0       0       0       0       0       0       0       0       0
  5011 ;;      Locals:         0       0       0       0       0       0       0       0       0
  5012 ;;      Temps:          0       0       0       0       0       0       0       0       0
  5013 ;;      Totals:         0       0       0       0       0       0       0       0       0
  5014 ;;Total ram usage:        0 bytes
  5015 ;; Hardware stack levels used:    1
  5016 ;; Hardware stack levels required when called:    6
  5017 ;; This function calls:
  5018 ;;		_USBStdFeatureReqHandler
  5019 ;;		_USBStdGetDscHandler
  5020 ;;		_USBStdGetStatusHandler
  5021 ;;		_USBStdSetCfgHandler
  5022 ;;		_USER_USB_CALLBACK_EVENT_HANDLER
  5023 ;; This function is called by:
  5024 ;;		_USBCtrlTrfSetupHandler
  5025 ;; This function uses a non-reentrant model
  5026 ;;
  5027                           
  5028                           	psect	text26
  5029  001714                     __ptext26:
  5030                           	opt stack 0
  5031  001714                     _USBCheckStdRequest:
  5032                           	opt stack 15
  5033                           
  5034                           ;usb_device.c: 2688: if(SetupPkt.RequestType != (0x00>>5)) return;
  5035                           
  5036                           ;incstack = 0
  5037  001714  0104               	movlb	4	; () banked
  5038  001716  3930               	swapf	48,w,b	;volatile
  5039  001718  32E8               	rrcf	wreg,f,c
  5040  00171A  0B03               	andlw	3
  5041  00171C  0900               	iorlw	0
  5042  00171E  A4D8               	btfss	status,2,c
  5043  001720  0012               	return	
  5044  001722  D04F               	goto	i2l3398
  5045  001724                     i2l446:
  5046                           
  5047                           ; BSR set to: 4
  5048                           ;usb_device.c: 2693: inPipes[0].info.bits.busy = 1;
  5049  001724  0100               	movlb	0	; () banked
  5050  001726  8F6B               	bsf	(_inPipes+3)& (0+255),7,b	;volatile
  5051                           
  5052                           ; BSR set to: 0
  5053                           ;usb_device.c: 2694: USBDeviceState = ADR_PENDING_STATE;
  5054  001728  0E08               	movlw	8
  5055  00172A  6E28               	movwf	_USBDeviceState,c	;volatile
  5056                           
  5057                           ;usb_device.c: 2696: break;
  5058  00172C  0012               	return	
  5059  00172E                     i2l3368:
  5060                           
  5061                           ;usb_device.c: 2698: USBStdGetDscHandler();
  5062  00172E  ECAD  F007         	call	_USBStdGetDscHandler	;wreg free
  5063                           
  5064                           ;usb_device.c: 2699: break;
  5065  001732  0012               	return	
  5066  001734                     i2l3370:
  5067                           
  5068                           ;usb_device.c: 2701: USBStdSetCfgHandler();
  5069  001734  EC03  F00C         	call	_USBStdSetCfgHandler	;wreg free
  5070                           
  5071                           ;usb_device.c: 2702: break;
  5072  001738  0012               	return	
  5073  00173A                     i2l3372:
  5074                           
  5075                           ;usb_device.c: 2704: inPipes[0].pSrc.bRam = (uint8_t*)&USBActiveConfiguration;
  5076  00173A  0E2C               	movlw	low _USBActiveConfiguration
  5077  00173C  0100               	movlb	0	; () banked
  5078  00173E  6F68               	movwf	_inPipes& (0+255),b	;volatile
  5079  001740  0E00               	movlw	high _USBActiveConfiguration
  5080  001742  0100               	movlb	0	; () banked
  5081  001744  6F69               	movwf	(_inPipes+1)& (0+255),b	;volatile
  5082                           
  5083                           ; BSR set to: 0
  5084                           ;usb_device.c: 2705: inPipes[0].info.bits.ctrl_trf_mem = 0x01;
  5085  001746  0100               	movlb	0	; () banked
  5086  001748  816B               	bsf	(_inPipes+3)& (0+255),0,b	;volatile
  5087                           
  5088                           ; BSR set to: 0
  5089                           ;usb_device.c: 2706: inPipes[0].wCount.v[0] = 1;
  5090  00174A  0E01               	movlw	1
  5091  00174C  0100               	movlb	0	; () banked
  5092  00174E  6F6C               	movwf	(_inPipes+4)& (0+255),b	;volatile
  5093                           
  5094                           ; BSR set to: 0
  5095                           ;usb_device.c: 2707: inPipes[0].info.bits.busy = 1;
  5096  001750  0100               	movlb	0	; () banked
  5097  001752  8F6B               	bsf	(_inPipes+3)& (0+255),7,b	;volatile
  5098                           
  5099                           ;usb_device.c: 2708: break;
  5100  001754  0012               	return	
  5101  001756                     i2l3380:
  5102                           
  5103                           ;usb_device.c: 2710: USBStdGetStatusHandler();
  5104  001756  EC68  F00E         	call	_USBStdGetStatusHandler	;wreg free
  5105                           
  5106                           ;usb_device.c: 2711: break;
  5107  00175A  0012               	return	
  5108  00175C                     i2l3382:
  5109                           
  5110                           ;usb_device.c: 2713: case 3:
  5111                           ;usb_device.c: 2714: USBStdFeatureReqHandler();
  5112  00175C  EC66  F004         	call	_USBStdFeatureReqHandler	;wreg free
  5113                           
  5114                           ;usb_device.c: 2715: break;
  5115  001760  0012               	return	
  5116  001762                     i2l3384:
  5117                           
  5118                           ;usb_device.c: 2717: inPipes[0].pSrc.bRam = (uint8_t*)&USBAlternateInterface[SetupPkt.bI
      +                          ntfID];
  5119  001762  0104               	movlb	4	; () banked
  5120  001764  5134               	movf	52,w,b	;volatile
  5121  001766  0D01               	mullw	1
  5122  001768  0E29               	movlw	low _USBAlternateInterface
  5123  00176A  24F3               	addwf	prodl,w,c
  5124  00176C  0100               	movlb	0	; () banked
  5125  00176E  6F68               	movwf	_inPipes& (0+255),b	;volatile
  5126  001770  0E00               	movlw	high _USBAlternateInterface
  5127  001772  20F4               	addwfc	prodh,w,c
  5128  001774  0100               	movlb	0	; () banked
  5129  001776  6F69               	movwf	(_inPipes+1)& (0+255),b	;volatile
  5130                           
  5131                           ; BSR set to: 0
  5132                           ;usb_device.c: 2718: inPipes[0].info.bits.ctrl_trf_mem = 0x01;
  5133  001778  0100               	movlb	0	; () banked
  5134  00177A  816B               	bsf	(_inPipes+3)& (0+255),0,b	;volatile
  5135                           
  5136                           ; BSR set to: 0
  5137                           ;usb_device.c: 2719: inPipes[0].wCount.v[0] = 1;
  5138  00177C  0E01               	movlw	1
  5139  00177E  0100               	movlb	0	; () banked
  5140  001780  6F6C               	movwf	(_inPipes+4)& (0+255),b	;volatile
  5141                           
  5142                           ; BSR set to: 0
  5143                           ;usb_device.c: 2720: inPipes[0].info.bits.busy = 1;
  5144  001782  0100               	movlb	0	; () banked
  5145  001784  8F6B               	bsf	(_inPipes+3)& (0+255),7,b	;volatile
  5146                           
  5147                           ;usb_device.c: 2721: break;
  5148  001786  0012               	return	
  5149  001788                     i2l455:
  5150                           
  5151                           ; BSR set to: 4
  5152                           ;usb_device.c: 2723: inPipes[0].info.bits.busy = 1;
  5153  001788  0100               	movlb	0	; () banked
  5154  00178A  8F6B               	bsf	(_inPipes+3)& (0+255),7,b	;volatile
  5155                           
  5156                           ; BSR set to: 0
  5157                           ;usb_device.c: 2724: USBAlternateInterface[SetupPkt.bIntfID] = SetupPkt.bAltID;
  5158  00178C  0104               	movlb	4	; () banked
  5159  00178E  5134               	movf	52,w,b	;volatile
  5160  001790  0D01               	mullw	1
  5161  001792  0E29               	movlw	low _USBAlternateInterface
  5162  001794  24F3               	addwf	prodl,w,c
  5163  001796  6ED9               	movwf	fsr2l,c
  5164  001798  0E00               	movlw	high _USBAlternateInterface
  5165  00179A  20F4               	addwfc	prodh,w,c
  5166  00179C  6EDA               	movwf	fsr2h,c
  5167  00179E  C432 FFDF          	movff	1074,indf2	;volatile
  5168                           
  5169                           ;usb_device.c: 2725: break;
  5170  0017A2  0012               	return	
  5171  0017A4                     i2l3394:
  5172                           
  5173                           ; BSR set to: 4
  5174                           ;usb_device.c: 2727: USER_USB_CALLBACK_EVENT_HANDLER(EVENT_SET_DESCRIPTOR,0,0);
  5175  0017A4  0E00               	movlw	0
  5176  0017A6  6E3B               	movwf	USER_USB_CALLBACK_EVENT_HANDLER@event+1,c
  5177  0017A8  0E02               	movlw	2
  5178  0017AA  6E3A               	movwf	USER_USB_CALLBACK_EVENT_HANDLER@event,c
  5179  0017AC  0E00               	movlw	0
  5180  0017AE  6E3C               	movwf	USER_USB_CALLBACK_EVENT_HANDLER@pdata,c
  5181  0017B0  0E00               	movlw	0
  5182  0017B2  6E3D               	movwf	USER_USB_CALLBACK_EVENT_HANDLER@pdata+1,c
  5183  0017B4  0E00               	movlw	0
  5184  0017B6  6E3F               	movwf	USER_USB_CALLBACK_EVENT_HANDLER@size+1,c
  5185  0017B8  0E00               	movlw	0
  5186  0017BA  6E3E               	movwf	USER_USB_CALLBACK_EVENT_HANDLER@size,c
  5187  0017BC  ECE2  F010         	call	_USER_USB_CALLBACK_EVENT_HANDLER	;wreg free
  5188                           
  5189                           ;usb_device.c: 2732: }
  5190                           
  5191                           ;usb_device.c: 2731: break;
  5192                           
  5193                           ;usb_device.c: 2730: default:
  5194                           
  5195                           ;usb_device.c: 2729: case 12:
  5196                           
  5197                           ;usb_device.c: 2728: break;
  5198  0017C0  0012               	return	
  5199  0017C2                     i2l3398:
  5200  0017C2  0104               	movlb	4	; () banked
  5201  0017C4  5131               	movf	49,w,b	;volatile
  5202                           
  5203                           ; Switch size 1, requested type "space"
  5204                           ; Number of cases is 11, Range of values is 0 to 12
  5205                           ; switch strategies available:
  5206                           ; Name         Instructions Cycles
  5207                           ; simple_byte           34    18 (average)
  5208                           ;	Chosen strategy is simple_byte
  5209  0017C6  0A00               	xorlw	0	; case 0
  5210  0017C8  B4D8               	btfsc	status,2,c
  5211  0017CA  D7C5               	goto	i2l3380
  5212  0017CC  0A01               	xorlw	1	; case 1
  5213  0017CE  B4D8               	btfsc	status,2,c
  5214  0017D0  D7C5               	goto	i2l3382
  5215  0017D2  0A02               	xorlw	2	; case 3
  5216  0017D4  B4D8               	btfsc	status,2,c
  5217  0017D6  D7C2               	goto	i2l3382
  5218  0017D8  0A06               	xorlw	6	; case 5
  5219  0017DA  B4D8               	btfsc	status,2,c
  5220  0017DC  D7A3               	goto	i2l446
  5221  0017DE  0A03               	xorlw	3	; case 6
  5222  0017E0  B4D8               	btfsc	status,2,c
  5223  0017E2  D7A5               	goto	i2l3368
  5224  0017E4  0A01               	xorlw	1	; case 7
  5225  0017E6  B4D8               	btfsc	status,2,c
  5226  0017E8  D7DD               	goto	i2l3394
  5227  0017EA  0A0F               	xorlw	15	; case 8
  5228  0017EC  B4D8               	btfsc	status,2,c
  5229  0017EE  D7A5               	goto	i2l3372
  5230  0017F0  0A01               	xorlw	1	; case 9
  5231  0017F2  B4D8               	btfsc	status,2,c
  5232  0017F4  D79F               	goto	i2l3370
  5233  0017F6  0A03               	xorlw	3	; case 10
  5234  0017F8  B4D8               	btfsc	status,2,c
  5235  0017FA  D7B3               	goto	i2l3384
  5236  0017FC  0A01               	xorlw	1	; case 11
  5237  0017FE  B4D8               	btfsc	status,2,c
  5238  001800  D7C3               	goto	i2l455
  5239  001802  0A07               	xorlw	7	; case 12
  5240  001804  0012               	return	
  5241  001806                     __end_of_USBCheckStdRequest:
  5242                           	opt stack 0
  5243                           pclatu	equ	0xFFB
  5244                           pclath	equ	0xFFA
  5245                           tblptru	equ	0xFF8
  5246                           tblptrh	equ	0xFF7
  5247                           tblptrl	equ	0xFF6
  5248                           tablat	equ	0xFF5
  5249                           prodh	equ	0xFF4
  5250                           prodl	equ	0xFF3
  5251                           intcon	equ	0xFF2
  5252                           postinc0	equ	0xFEE
  5253                           fsr0h	equ	0xFEA
  5254                           fsr0l	equ	0xFE9
  5255                           wreg	equ	0xFE8
  5256                           indf1	equ	0xFE7
  5257                           fsr1h	equ	0xFE2
  5258                           fsr1l	equ	0xFE1
  5259                           bsr	equ	0xFE0
  5260                           indf2	equ	0xFDF
  5261                           postinc2	equ	0xFDE
  5262                           postdec2	equ	0xFDD
  5263                           plusw2	equ	0xFDB
  5264                           fsr2h	equ	0xFDA
  5265                           fsr2l	equ	0xFD9
  5266                           status	equ	0xFD8
  5267                           
  5268 ;; *************** function _USBStdSetCfgHandler *****************
  5269 ;; Defined at:
  5270 ;;		line 1968 in file "../mla/v2017_03_06/framework/usb/src/usb_device.c"
  5271 ;; Parameters:    Size  Location     Type
  5272 ;;		None
  5273 ;; Auto vars:     Size  Location     Type
  5274 ;;  i               1   21[COMRAM] unsigned char 
  5275 ;; Return value:  Size  Location     Type
  5276 ;;                  1    wreg      void 
  5277 ;; Registers used:
  5278 ;;		wreg, fsr2l, fsr2h, status,2, status,0, prodl, prodh, cstack
  5279 ;; Tracked objects:
  5280 ;;		On entry : 0/0
  5281 ;;		On exit  : 0/0
  5282 ;;		Unchanged: 0/0
  5283 ;; Data sizes:     COMRAM   BANK0   BANK1   BANK2   BANK3   BANK4   BANK5   BANK6   BANK7
  5284 ;;      Params:         0       0       0       0       0       0       0       0       0
  5285 ;;      Locals:         1       0       0       0       0       0       0       0       0
  5286 ;;      Temps:          0       0       0       0       0       0       0       0       0
  5287 ;;      Totals:         1       0       0       0       0       0       0       0       0
  5288 ;;Total ram usage:        1 bytes
  5289 ;; Hardware stack levels used:    1
  5290 ;; Hardware stack levels required when called:    5
  5291 ;; This function calls:
  5292 ;;		_USER_USB_CALLBACK_EVENT_HANDLER
  5293 ;;		i2_memset
  5294 ;; This function is called by:
  5295 ;;		_USBCheckStdRequest
  5296 ;; This function uses a non-reentrant model
  5297 ;;
  5298                           
  5299                           	psect	text27
  5300  001806                     __ptext27:
  5301                           	opt stack 0
  5302  001806                     _USBStdSetCfgHandler:
  5303                           	opt stack 15
  5304                           
  5305                           ;usb_device.c: 1970: uint8_t i;
  5306                           ;usb_device.c: 1973: inPipes[0].info.bits.busy = 1;
  5307                           
  5308                           ;incstack = 0
  5309  001806  0100               	movlb	0	; () banked
  5310  001808  8F6B               	bsf	(_inPipes+3)& (0+255),7,b	;volatile
  5311                           
  5312                           ; BSR set to: 0
  5313                           ;usb_device.c: 1976: memset((void*)&UEP1,0x00,(2));;
  5314  00180A  0E71               	movlw	113
  5315  00180C  6E2D               	movwf	i2memset@p1,c
  5316  00180E  0E0F               	movlw	15
  5317  001810  6E2E               	movwf	i2memset@p1+1,c
  5318  001812  0E00               	movlw	0
  5319  001814  6E30               	movwf	i2memset@c+1,c
  5320  001816  0E00               	movlw	0
  5321  001818  6E2F               	movwf	i2memset@c,c
  5322  00181A  0E00               	movlw	0
  5323  00181C  6E32               	movwf	i2memset@n+1,c
  5324  00181E  0E02               	movlw	2
  5325  001820  6E31               	movwf	i2memset@n,c
  5326  001822  EC66  F012         	call	i2_memset	;wreg free
  5327                           
  5328                           ;usb_device.c: 1979: memset((void*)&BDT[0], 0x00, sizeof(BDT));
  5329  001826  0E00               	movlw	0
  5330  001828  6E2D               	movwf	i2memset@p1,c
  5331  00182A  0E04               	movlw	4
  5332  00182C  6E2E               	movwf	i2memset@p1+1,c
  5333  00182E  0E00               	movlw	0
  5334  001830  6E30               	movwf	i2memset@c+1,c
  5335  001832  0E00               	movlw	0
  5336  001834  6E2F               	movwf	i2memset@c,c
  5337  001836  0E00               	movlw	0
  5338  001838  6E32               	movwf	i2memset@n+1,c
  5339  00183A  0E30               	movlw	48
  5340  00183C  6E31               	movwf	i2memset@n,c
  5341  00183E  EC66  F012         	call	i2_memset	;wreg free
  5342                           
  5343                           ;usb_device.c: 1982: UCONbits.PPBRST = 1;
  5344  001842  8C6D               	bsf	3949,6,c	;volatile
  5345                           
  5346                           ;usb_device.c: 1987: for(i = 0; i < (uint8_t)(2+1u); i++)
  5347  001844  0E00               	movlw	0
  5348  001846  6E42               	movwf	USBStdSetCfgHandler@i,c
  5349  001848                     i2l3050:
  5350  001848  0E02               	movlw	2
  5351  00184A  6442               	cpfsgt	USBStdSetCfgHandler@i,c
  5352  00184C  D001               	goto	i2l3054
  5353  00184E  D016               	goto	i2l3060
  5354  001850                     i2l3054:
  5355                           
  5356                           ;usb_device.c: 1988: {
  5357                           ;usb_device.c: 1989: ep_data_in[i].Val = 0u;
  5358  001850  5042               	movf	USBStdSetCfgHandler@i,w,c
  5359  001852  0D01               	mullw	1
  5360  001854  0E81               	movlw	low _ep_data_in
  5361  001856  24F3               	addwf	prodl,w,c
  5362  001858  6ED9               	movwf	fsr2l,c
  5363  00185A  0E00               	movlw	high _ep_data_in
  5364  00185C  20F4               	addwfc	prodh,w,c
  5365  00185E  6EDA               	movwf	fsr2h,c
  5366  001860  0E00               	movlw	0
  5367  001862  6EDF               	movwf	indf2,c
  5368                           
  5369                           ;usb_device.c: 1990: ep_data_out[i].Val = 0u;
  5370  001864  5042               	movf	USBStdSetCfgHandler@i,w,c
  5371  001866  0D01               	mullw	1
  5372  001868  0E7E               	movlw	low _ep_data_out
  5373  00186A  24F3               	addwf	prodl,w,c
  5374  00186C  6ED9               	movwf	fsr2l,c
  5375  00186E  0E00               	movlw	high _ep_data_out
  5376  001870  20F4               	addwfc	prodh,w,c
  5377  001872  6EDA               	movwf	fsr2h,c
  5378  001874  0E00               	movlw	0
  5379  001876  6EDF               	movwf	indf2,c
  5380  001878  2A42               	incf	USBStdSetCfgHandler@i,f,c
  5381  00187A  D7E6               	goto	i2l3050
  5382  00187C                     i2l3060:
  5383                           
  5384                           ;usb_device.c: 1991: }
  5385                           ;usb_device.c: 1994: memset((void*)&USBAlternateInterface,0x00,2);
  5386  00187C  0E29               	movlw	low _USBAlternateInterface
  5387  00187E  6E2D               	movwf	i2memset@p1,c
  5388  001880  0E00               	movlw	high _USBAlternateInterface
  5389  001882  6E2E               	movwf	i2memset@p1+1,c
  5390  001884  0E00               	movlw	0
  5391  001886  6E30               	movwf	i2memset@c+1,c
  5392  001888  0E00               	movlw	0
  5393  00188A  6E2F               	movwf	i2memset@c,c
  5394  00188C  0E00               	movlw	0
  5395  00188E  6E32               	movwf	i2memset@n+1,c
  5396  001890  0E02               	movlw	2
  5397  001892  6E31               	movwf	i2memset@n,c
  5398  001894  EC66  F012         	call	i2_memset	;wreg free
  5399                           
  5400                           ;usb_device.c: 1997: UCONbits.PPBRST = 0;
  5401  001898  9C6D               	bcf	3949,6,c	;volatile
  5402                           
  5403                           ;usb_device.c: 1999: pBDTEntryIn[0] = (volatile BDT_ENTRY*)&BDT[2];
  5404  00189A  0E08               	movlw	8
  5405  00189C  0100               	movlb	0	; () banked
  5406  00189E  6F6E               	movwf	_pBDTEntryIn& (0+255),b
  5407  0018A0  0E04               	movlw	4
  5408  0018A2  0100               	movlb	0	; () banked
  5409  0018A4  6F6F               	movwf	(_pBDTEntryIn+1)& (0+255),b
  5410                           
  5411                           ; BSR set to: 0
  5412                           ;usb_device.c: 2002: pBDTEntryEP0OutCurrent = (volatile BDT_ENTRY*)&BDT[0];
  5413  0018A6  0E00               	movlw	0
  5414  0018A8  6E11               	movwf	_pBDTEntryEP0OutCurrent,c
  5415  0018AA  0E04               	movlw	4
  5416  0018AC  6E12               	movwf	_pBDTEntryEP0OutCurrent+1,c
  5417                           
  5418                           ; BSR set to: 0
  5419                           ;usb_device.c: 2003: pBDTEntryEP0OutNext = pBDTEntryEP0OutCurrent;
  5420  0018AE  C011  F00F         	movff	_pBDTEntryEP0OutCurrent,_pBDTEntryEP0OutNext
  5421  0018B2  C012  F010         	movff	_pBDTEntryEP0OutCurrent+1,_pBDTEntryEP0OutNext+1
  5422                           
  5423                           ; BSR set to: 0
  5424                           ;usb_device.c: 2006: USBActiveConfiguration = SetupPkt.bConfigurationValue;
  5425  0018B6  C432 F02C          	movff	1074,_USBActiveConfiguration	;volatile
  5426                           
  5427                           ; BSR set to: 0
  5428                           ;usb_device.c: 2009: if(USBActiveConfiguration == 0)
  5429  0018BA  502C               	movf	_USBActiveConfiguration,w,c	;volatile
  5430  0018BC  A4D8               	btfss	status,2,c
  5431  0018BE  D003               	goto	i2l3076
  5432                           
  5433                           ; BSR set to: 0
  5434                           ;usb_device.c: 2010: {
  5435                           ;usb_device.c: 2012: USBDeviceState = ADDRESS_STATE;
  5436  0018C0  0E10               	movlw	16
  5437  0018C2  6E28               	movwf	_USBDeviceState,c	;volatile
  5438                           
  5439                           ;usb_device.c: 2013: }
  5440  0018C4  0012               	return	
  5441  0018C6                     i2l3076:
  5442                           
  5443                           ; BSR set to: 0
  5444                           ;usb_device.c: 2014: else
  5445                           ;usb_device.c: 2015: {
  5446                           ;usb_device.c: 2017: USER_USB_CALLBACK_EVENT_HANDLER(EVENT_CONFIGURED,(void*)&USBActiveC
      +                          onfiguration,1);
  5447  0018C6  0E00               	movlw	0
  5448  0018C8  6E3B               	movwf	USER_USB_CALLBACK_EVENT_HANDLER@event+1,c
  5449  0018CA  0E01               	movlw	1
  5450  0018CC  6E3A               	movwf	USER_USB_CALLBACK_EVENT_HANDLER@event,c
  5451  0018CE  0E2C               	movlw	low _USBActiveConfiguration
  5452  0018D0  6E3C               	movwf	USER_USB_CALLBACK_EVENT_HANDLER@pdata,c
  5453  0018D2  0E00               	movlw	high _USBActiveConfiguration
  5454  0018D4  6E3D               	movwf	USER_USB_CALLBACK_EVENT_HANDLER@pdata+1,c
  5455  0018D6  0E00               	movlw	0
  5456  0018D8  6E3F               	movwf	USER_USB_CALLBACK_EVENT_HANDLER@size+1,c
  5457  0018DA  0E01               	movlw	1
  5458  0018DC  6E3E               	movwf	USER_USB_CALLBACK_EVENT_HANDLER@size,c
  5459  0018DE  ECE2  F010         	call	_USER_USB_CALLBACK_EVENT_HANDLER	;wreg free
  5460                           
  5461                           ;usb_device.c: 2022: USBDeviceState = CONFIGURED_STATE;
  5462  0018E2  0E20               	movlw	32
  5463  0018E4  6E28               	movwf	_USBDeviceState,c	;volatile
  5464  0018E6  0012               	return	
  5465  0018E8                     __end_of_USBStdSetCfgHandler:
  5466                           	opt stack 0
  5467                           pclatu	equ	0xFFB
  5468                           pclath	equ	0xFFA
  5469                           tblptru	equ	0xFF8
  5470                           tblptrh	equ	0xFF7
  5471                           tblptrl	equ	0xFF6
  5472                           tablat	equ	0xFF5
  5473                           prodh	equ	0xFF4
  5474                           prodl	equ	0xFF3
  5475                           intcon	equ	0xFF2
  5476                           postinc0	equ	0xFEE
  5477                           fsr0h	equ	0xFEA
  5478                           fsr0l	equ	0xFE9
  5479                           wreg	equ	0xFE8
  5480                           indf1	equ	0xFE7
  5481                           fsr1h	equ	0xFE2
  5482                           fsr1l	equ	0xFE1
  5483                           bsr	equ	0xFE0
  5484                           indf2	equ	0xFDF
  5485                           postinc2	equ	0xFDE
  5486                           postdec2	equ	0xFDD
  5487                           plusw2	equ	0xFDB
  5488                           fsr2h	equ	0xFDA
  5489                           fsr2l	equ	0xFD9
  5490                           status	equ	0xFD8
  5491                           
  5492 ;; *************** function i2_memset *****************
  5493 ;; Defined at:
  5494 ;;		line 8 in file "D:\Program Files (x86)\Microchip\xc8\v1.42\sources\common\memset.c"
  5495 ;; Parameters:    Size  Location     Type
  5496 ;;  p1              2    0[COMRAM] PTR void 
  5497 ;;		 -> USBAlternateInterface(2), BDT(48), UEP1(1), 
  5498 ;;  c               2    2[COMRAM] int 
  5499 ;;  n               2    4[COMRAM] unsigned int 
  5500 ;; Auto vars:     Size  Location     Type
  5501 ;;  memset          2    6[COMRAM] PTR unsigned char 
  5502 ;;		 -> USBAlternateInterface(2), BDT(48), UEP1(1), 
  5503 ;; Return value:  Size  Location     Type
  5504 ;;                  2    0[COMRAM] PTR void 
  5505 ;; Registers used:
  5506 ;;		wreg, fsr2l, fsr2h, status,2, status,0
  5507 ;; Tracked objects:
  5508 ;;		On entry : 0/0
  5509 ;;		On exit  : 0/0
  5510 ;;		Unchanged: 0/0
  5511 ;; Data sizes:     COMRAM   BANK0   BANK1   BANK2   BANK3   BANK4   BANK5   BANK6   BANK7
  5512 ;;      Params:         6       0       0       0       0       0       0       0       0
  5513 ;;      Locals:         2       0       0       0       0       0       0       0       0
  5514 ;;      Temps:          0       0       0       0       0       0       0       0       0
  5515 ;;      Totals:         8       0       0       0       0       0       0       0       0
  5516 ;;Total ram usage:        8 bytes
  5517 ;; Hardware stack levels used:    1
  5518 ;; This function calls:
  5519 ;;		Nothing
  5520 ;; This function is called by:
  5521 ;;		_USBStdSetCfgHandler
  5522 ;;		i2_USBDeviceInit
  5523 ;; This function uses a non-reentrant model
  5524 ;;
  5525                           
  5526                           	psect	text28
  5527  0024CC                     __ptext28:
  5528                           	opt stack 0
  5529  0024CC                     i2_memset:
  5530                           	opt stack 22
  5531                           
  5532                           ;incstack = 0
  5533  0024CC  C02D  F033         	movff	i2memset@p1,i2memset@p
  5534  0024D0  C02E  F034         	movff	i2memset@p1+1,i2memset@p+1
  5535  0024D4  D008               	goto	i2l2984
  5536  0024D6                     i2l2980:
  5537  0024D6  C033  FFD9         	movff	i2memset@p,fsr2l
  5538  0024DA  C034  FFDA         	movff	i2memset@p+1,fsr2h
  5539  0024DE  C02F  FFDF         	movff	i2memset@c,indf2
  5540  0024E2  4A33               	infsnz	i2memset@p,f,c
  5541  0024E4  2A34               	incf	i2memset@p+1,f,c
  5542  0024E6                     i2l2984:
  5543  0024E6  0631               	decf	i2memset@n,f,c
  5544  0024E8  A0D8               	btfss	status,0,c
  5545  0024EA  0632               	decf	i2memset@n+1,f,c
  5546  0024EC  2831               	incf	i2memset@n,w,c
  5547  0024EE  E1F3               	bnz	i2l2980
  5548  0024F0  2832               	incf	i2memset@n+1,w,c
  5549  0024F2  B4D8               	btfsc	status,2,c
  5550  0024F4  0012               	return	
  5551  0024F6  D7EF               	goto	i2l2980
  5552  0024F8                     __end_ofi2_memset:
  5553                           	opt stack 0
  5554                           pclatu	equ	0xFFB
  5555                           pclath	equ	0xFFA
  5556                           tblptru	equ	0xFF8
  5557                           tblptrh	equ	0xFF7
  5558                           tblptrl	equ	0xFF6
  5559                           tablat	equ	0xFF5
  5560                           prodh	equ	0xFF4
  5561                           prodl	equ	0xFF3
  5562                           intcon	equ	0xFF2
  5563                           postinc0	equ	0xFEE
  5564                           fsr0h	equ	0xFEA
  5565                           fsr0l	equ	0xFE9
  5566                           wreg	equ	0xFE8
  5567                           indf1	equ	0xFE7
  5568                           fsr1h	equ	0xFE2
  5569                           fsr1l	equ	0xFE1
  5570                           bsr	equ	0xFE0
  5571                           indf2	equ	0xFDF
  5572                           postinc2	equ	0xFDE
  5573                           postdec2	equ	0xFDD
  5574                           plusw2	equ	0xFDB
  5575                           fsr2h	equ	0xFDA
  5576                           fsr2l	equ	0xFD9
  5577                           status	equ	0xFD8
  5578                           
  5579 ;; *************** function _USBStdGetStatusHandler *****************
  5580 ;; Defined at:
  5581 ;;		line 2129 in file "../mla/v2017_03_06/framework/usb/src/usb_device.c"
  5582 ;; Parameters:    Size  Location     Type
  5583 ;;		None
  5584 ;; Auto vars:     Size  Location     Type
  5585 ;;  p               2    1[COMRAM] PTR struct __BDT
  5586 ;;		 -> RAM(2047), NULL(0), BDT(48), 
  5587 ;; Return value:  Size  Location     Type
  5588 ;;                  1    wreg      void 
  5589 ;; Registers used:
  5590 ;;		wreg, fsr2l, fsr2h, status,2, status,0, prodl, prodh
  5591 ;; Tracked objects:
  5592 ;;		On entry : 0/0
  5593 ;;		On exit  : 0/0
  5594 ;;		Unchanged: 0/0
  5595 ;; Data sizes:     COMRAM   BANK0   BANK1   BANK2   BANK3   BANK4   BANK5   BANK6   BANK7
  5596 ;;      Params:         0       0       0       0       0       0       0       0       0
  5597 ;;      Locals:         2       0       0       0       0       0       0       0       0
  5598 ;;      Temps:          1       0       0       0       0       0       0       0       0
  5599 ;;      Totals:         3       0       0       0       0       0       0       0       0
  5600 ;;Total ram usage:        3 bytes
  5601 ;; Hardware stack levels used:    1
  5602 ;; This function calls:
  5603 ;;		Nothing
  5604 ;; This function is called by:
  5605 ;;		_USBCheckStdRequest
  5606 ;; This function uses a non-reentrant model
  5607 ;;
  5608                           
  5609                           	psect	text29
  5610  001CD0                     __ptext29:
  5611                           	opt stack 0
  5612  001CD0                     _USBStdGetStatusHandler:
  5613                           	opt stack 20
  5614                           
  5615                           ;usb_device.c: 2131: CtrlTrfData[0] = 0;
  5616                           
  5617                           ;incstack = 0
  5618  001CD0  0E00               	movlw	0
  5619  001CD2  0104               	movlb	4	; () banked
  5620  001CD4  6F38               	movwf	56,b	;volatile
  5621                           
  5622                           ;usb_device.c: 2132: CtrlTrfData[1] = 0;
  5623  001CD6  0E00               	movlw	0
  5624  001CD8  0104               	movlb	4	; () banked
  5625  001CDA  6F39               	movwf	57,b	;volatile
  5626                           
  5627                           ;usb_device.c: 2134: switch(SetupPkt.Recipient)
  5628  001CDC  D03B               	goto	i2l3132
  5629  001CDE                     i2l384:
  5630                           
  5631                           ; BSR set to: 4
  5632                           ;usb_device.c: 2137: inPipes[0].info.bits.busy = 1;
  5633  001CDE  0100               	movlb	0	; () banked
  5634  001CE0  8F6B               	bsf	(_inPipes+3)& (0+255),7,b	;volatile
  5635                           
  5636                           ;usb_device.c: 2145: }
  5637                           ;usb_device.c: 2147: if(RemoteWakeup == 1)
  5638                           
  5639                           ; BSR set to: 4
  5640                           
  5641                           ; BSR set to: 0
  5642                           ;usb_device.c: 2143: {
  5643                           ;usb_device.c: 2144: CtrlTrfData[0]|=0x01;
  5644                           
  5645                           ;usb_device.c: 2142: if(0 == 1)
  5646  001CE2  0425               	decf	_RemoteWakeup,w,c	;volatile
  5647  001CE4  A4D8               	btfss	status,2,c
  5648  001CE6  D042               	goto	i2l387
  5649                           
  5650                           ;usb_device.c: 2148: {
  5651                           ;usb_device.c: 2149: CtrlTrfData[0]|=0x02;
  5652  001CE8  0104               	movlb	4	; () banked
  5653  001CEA  8338               	bsf	56,1,b	;volatile
  5654                           
  5655                           ; BSR set to: 4
  5656                           ;usb_device.c: 2150: }
  5657                           ;usb_device.c: 2151: break;
  5658  001CEC  D03F               	goto	i2l387
  5659  001CEE                     i2l388:
  5660                           
  5661                           ; BSR set to: 4
  5662                           ;usb_device.c: 2153: inPipes[0].info.bits.busy = 1;
  5663  001CEE  0100               	movlb	0	; () banked
  5664  001CF0  8F6B               	bsf	(_inPipes+3)& (0+255),7,b	;volatile
  5665                           
  5666                           ;usb_device.c: 2154: break;
  5667  001CF2  D03C               	goto	i2l387
  5668  001CF4                     i2l389:
  5669                           
  5670                           ; BSR set to: 4
  5671                           ;usb_device.c: 2156: inPipes[0].info.bits.busy = 1;
  5672  001CF4  0100               	movlb	0	; () banked
  5673  001CF6  8F6B               	bsf	(_inPipes+3)& (0+255),7,b	;volatile
  5674                           
  5675                           ;usb_device.c: 2160: {
  5676                           ;usb_device.c: 2161: BDT_ENTRY *p;
  5677                           ;usb_device.c: 2163: if(SetupPkt.EPDir == 0)
  5678  001CF8  0104               	movlb	4	; () banked
  5679  001CFA  BF34               	btfsc	52,7,b	;volatile
  5680  001CFC  D00B               	goto	i2l3122
  5681                           
  5682                           ; BSR set to: 4
  5683                           ;usb_device.c: 2164: {
  5684                           ;usb_device.c: 2165: p = (BDT_ENTRY*)pBDTEntryOut[SetupPkt.EPNum];
  5685  001CFE  0104               	movlb	4	; () banked
  5686  001D00  5134               	movf	52,w,b	;volatile
  5687  001D02  0B0F               	andlw	15
  5688  001D04  6E2D               	movwf	??_USBStdGetStatusHandler& (0+255),c
  5689  001D06  502D               	movf	??_USBStdGetStatusHandler,w,c
  5690  001D08  0D02               	mullw	2
  5691  001D0A  0E74               	movlw	low _pBDTEntryOut
  5692  001D0C  24F3               	addwf	prodl,w,c
  5693  001D0E  6ED9               	movwf	fsr2l,c
  5694  001D10  0E00               	movlw	high _pBDTEntryOut
  5695  001D12  D00A               	goto	L5
  5696  001D14                     i2l3122:
  5697                           
  5698                           ; BSR set to: 4
  5699                           ;usb_device.c: 2167: else
  5700                           ;usb_device.c: 2168: {
  5701                           ;usb_device.c: 2169: p = (BDT_ENTRY*)pBDTEntryIn[SetupPkt.EPNum];
  5702  001D14  0104               	movlb	4	; () banked
  5703  001D16  5134               	movf	52,w,b	;volatile
  5704  001D18  0B0F               	andlw	15
  5705  001D1A  6E2D               	movwf	??_USBStdGetStatusHandler& (0+255),c
  5706  001D1C  502D               	movf	??_USBStdGetStatusHandler,w,c
  5707  001D1E  0D02               	mullw	2
  5708  001D20  0E6E               	movlw	low _pBDTEntryIn
  5709  001D22  24F3               	addwf	prodl,w,c
  5710  001D24  6ED9               	movwf	fsr2l,c
  5711  001D26  0E00               	movlw	high _pBDTEntryIn
  5712  001D28                     L5:
  5713  001D28  20F4               	addwfc	prodh,w,c
  5714  001D2A  6EDA               	movwf	fsr2h,c
  5715  001D2C  CFDE F02E          	movff	postinc2,USBStdGetStatusHandler@p
  5716  001D30  CFDD F02F          	movff	postdec2,USBStdGetStatusHandler@p+1
  5717                           
  5718                           ; BSR set to: 4
  5719                           ;usb_device.c: 2170: }
  5720                           ;usb_device.c: 2172: if((p->STAT.UOWN == 1) && (p->STAT.BSTALL == 1))
  5721                           
  5722                           ; BSR set to: 4
  5723  001D34  C02E  FFD9         	movff	USBStdGetStatusHandler@p,fsr2l
  5724  001D38  C02F  FFDA         	movff	USBStdGetStatusHandler@p+1,fsr2h
  5725  001D3C  AEDF               	btfss	indf2,7,c
  5726  001D3E  D016               	goto	i2l387
  5727                           
  5728                           ; BSR set to: 4
  5729  001D40  C02E  FFD9         	movff	USBStdGetStatusHandler@p,fsr2l
  5730  001D44  C02F  FFDA         	movff	USBStdGetStatusHandler@p+1,fsr2h
  5731  001D48  A4DF               	btfss	indf2,2,c
  5732  001D4A  D010               	goto	i2l387
  5733                           
  5734                           ; BSR set to: 4
  5735                           ;usb_device.c: 2173: CtrlTrfData[0]=0x01;
  5736  001D4C  0E01               	movlw	1
  5737  001D4E  0104               	movlb	4	; () banked
  5738  001D50  6F38               	movwf	56,b	;volatile
  5739                           
  5740                           ; BSR set to: 4
  5741                           ;usb_device.c: 2175: }
  5742                           ;usb_device.c: 2176: }
  5743                           
  5744                           ; BSR set to: 4
  5745                           ;usb_device.c: 2174: break;
  5746  001D52  D00C               	goto	i2l387
  5747  001D54                     i2l3132:
  5748                           
  5749                           ; BSR set to: 4
  5750  001D54  0104               	movlb	4	; () banked
  5751  001D56  5130               	movf	48,w,b	;volatile
  5752  001D58  0B1F               	andlw	31
  5753                           
  5754                           ; Switch size 1, requested type "space"
  5755                           ; Number of cases is 3, Range of values is 0 to 2
  5756                           ; switch strategies available:
  5757                           ; Name         Instructions Cycles
  5758                           ; simple_byte           10     6 (average)
  5759                           ;	Chosen strategy is simple_byte
  5760  001D5A  0A00               	xorlw	0	; case 0
  5761  001D5C  B4D8               	btfsc	status,2,c
  5762  001D5E  D7BF               	goto	i2l384
  5763  001D60  0A01               	xorlw	1	; case 1
  5764  001D62  B4D8               	btfsc	status,2,c
  5765  001D64  D7C4               	goto	i2l388
  5766  001D66  0A03               	xorlw	3	; case 2
  5767  001D68  B4D8               	btfsc	status,2,c
  5768  001D6A  D7C4               	goto	i2l389
  5769  001D6C                     i2l387:
  5770                           
  5771                           ;usb_device.c: 2178: if(inPipes[0].info.bits.busy == 1)
  5772  001D6C  0100               	movlb	0	; () banked
  5773  001D6E  AF6B               	btfss	(_inPipes+3)& (0+255),7,b	;volatile
  5774  001D70  0012               	return	
  5775                           
  5776                           ; BSR set to: 0
  5777                           ;usb_device.c: 2179: {
  5778                           ;usb_device.c: 2180: inPipes[0].pSrc.bRam = (uint8_t*)&CtrlTrfData;
  5779  001D72  0E38               	movlw	56
  5780  001D74  0100               	movlb	0	; () banked
  5781  001D76  6F68               	movwf	_inPipes& (0+255),b	;volatile
  5782  001D78  0E04               	movlw	4
  5783  001D7A  0100               	movlb	0	; () banked
  5784  001D7C  6F69               	movwf	(_inPipes+1)& (0+255),b	;volatile
  5785                           
  5786                           ; BSR set to: 0
  5787                           ;usb_device.c: 2181: inPipes[0].info.bits.ctrl_trf_mem = 0x01;
  5788  001D7E  0100               	movlb	0	; () banked
  5789  001D80  816B               	bsf	(_inPipes+3)& (0+255),0,b	;volatile
  5790                           
  5791                           ; BSR set to: 0
  5792                           ;usb_device.c: 2182: inPipes[0].wCount.v[0] = 2;
  5793  001D82  0E02               	movlw	2
  5794  001D84  0100               	movlb	0	; () banked
  5795  001D86  6F6C               	movwf	(_inPipes+4)& (0+255),b	;volatile
  5796  001D88  0012               	return	
  5797  001D8A                     __end_of_USBStdGetStatusHandler:
  5798                           	opt stack 0
  5799                           pclatu	equ	0xFFB
  5800                           pclath	equ	0xFFA
  5801                           tblptru	equ	0xFF8
  5802                           tblptrh	equ	0xFF7
  5803                           tblptrl	equ	0xFF6
  5804                           tablat	equ	0xFF5
  5805                           prodh	equ	0xFF4
  5806                           prodl	equ	0xFF3
  5807                           intcon	equ	0xFF2
  5808                           postinc0	equ	0xFEE
  5809                           fsr0h	equ	0xFEA
  5810                           fsr0l	equ	0xFE9
  5811                           wreg	equ	0xFE8
  5812                           indf1	equ	0xFE7
  5813                           fsr1h	equ	0xFE2
  5814                           fsr1l	equ	0xFE1
  5815                           bsr	equ	0xFE0
  5816                           indf2	equ	0xFDF
  5817                           postinc2	equ	0xFDE
  5818                           postdec2	equ	0xFDD
  5819                           plusw2	equ	0xFDB
  5820                           fsr2h	equ	0xFDA
  5821                           fsr2l	equ	0xFD9
  5822                           status	equ	0xFD8
  5823                           
  5824 ;; *************** function _USBStdGetDscHandler *****************
  5825 ;; Defined at:
  5826 ;;		line 2043 in file "../mla/v2017_03_06/framework/usb/src/usb_device.c"
  5827 ;; Parameters:    Size  Location     Type
  5828 ;;		None
  5829 ;; Auto vars:     Size  Location     Type
  5830 ;;		None
  5831 ;; Return value:  Size  Location     Type
  5832 ;;                  1    wreg      void 
  5833 ;; Registers used:
  5834 ;;		wreg, fsr1l, fsr1h, status,2, status,0, tblptrl, tblptrh, tblptru, prodl, prodh
  5835 ;; Tracked objects:
  5836 ;;		On entry : 0/0
  5837 ;;		On exit  : 0/0
  5838 ;;		Unchanged: 0/0
  5839 ;; Data sizes:     COMRAM   BANK0   BANK1   BANK2   BANK3   BANK4   BANK5   BANK6   BANK7
  5840 ;;      Params:         0       0       0       0       0       0       0       0       0
  5841 ;;      Locals:         0       0       0       0       0       0       0       0       0
  5842 ;;      Temps:          2       0       0       0       0       0       0       0       0
  5843 ;;      Totals:         2       0       0       0       0       0       0       0       0
  5844 ;;Total ram usage:        2 bytes
  5845 ;; Hardware stack levels used:    1
  5846 ;; This function calls:
  5847 ;;		Nothing
  5848 ;; This function is called by:
  5849 ;;		_USBCheckStdRequest
  5850 ;; This function uses a non-reentrant model
  5851 ;;
  5852                           
  5853                           	psect	text30
  5854  000F5A                     __ptext30:
  5855                           	opt stack 0
  5856  000F5A                     _USBStdGetDscHandler:
  5857                           	opt stack 20
  5858                           
  5859                           ;usb_device.c: 2045: if(SetupPkt.bmRequestType == 0x80)
  5860                           
  5861                           ; BSR set to: 0
  5862                           ;incstack = 0
  5863  000F5A  0E80               	movlw	128
  5864  000F5C  0104               	movlb	4	; () banked
  5865  000F5E  1930               	xorwf	48,w,b	;volatile
  5866  000F60  A4D8               	btfss	status,2,c
  5867  000F62  0012               	return	
  5868                           
  5869                           ; BSR set to: 4
  5870                           ;usb_device.c: 2046: {
  5871                           ;usb_device.c: 2047: inPipes[0].info.Val = 0x00 | 0x80 | 0x40;
  5872  000F64  0EC0               	movlw	192
  5873  000F66  0100               	movlb	0	; () banked
  5874  000F68  6F6B               	movwf	(_inPipes+3)& (0+255),b	;volatile
  5875                           
  5876                           ;usb_device.c: 2049: switch(SetupPkt.bDescriptorType)
  5877  000F6A  D089               	goto	i2l3110
  5878  000F6C                     i2l3084:
  5879                           
  5880                           ;usb_device.c: 2055: inPipes[0].pSrc.bRom = (const uint8_t*)&device_dsc;
  5881  000F6C  0EB4               	movlw	low _device_dsc
  5882  000F6E  0100               	movlb	0	; () banked
  5883  000F70  6F68               	movwf	_inPipes& (0+255),b	;volatile
  5884  000F72  0E08               	movlw	high _device_dsc
  5885  000F74  0100               	movlb	0	; () banked
  5886  000F76  6F69               	movwf	(_inPipes+1)& (0+255),b	;volatile
  5887                           
  5888                           ; BSR set to: 0
  5889                           ;usb_device.c: 2057: inPipes[0].wCount.Val = sizeof(device_dsc);
  5890  000F78  0E00               	movlw	0
  5891  000F7A  0100               	movlb	0	; () banked
  5892  000F7C  6F6D               	movwf	(_inPipes+5)& (0+255),b	;volatile
  5893  000F7E  0E12               	movlw	18
  5894  000F80  6F6C               	movwf	(_inPipes+4)& (0+255),b	;volatile
  5895                           
  5896                           ;usb_device.c: 2058: break;
  5897  000F82  0012               	return	
  5898  000F84                     i2l3088:
  5899                           
  5900                           ;usb_device.c: 2063: if(SetupPkt.bDscIndex < 1)
  5901  000F84  0104               	movlb	4	; () banked
  5902  000F86  5132               	movf	50,w,b	;volatile
  5903  000F88  A4D8               	btfss	status,2,c
  5904  000F8A  D044               	goto	i2l3096
  5905                           
  5906                           ; BSR set to: 4
  5907                           ;usb_device.c: 2064: {
  5908                           ;usb_device.c: 2068: inPipes[0].pSrc.bRom = *(USB_CD_Ptr+SetupPkt.bDscIndex);
  5909  000F8C  0104               	movlb	4	; () banked
  5910  000F8E  5132               	movf	50,w,b	;volatile
  5911  000F90  0D02               	mullw	2
  5912  000F92  0E07               	movlw	low _USB_CD_Ptr
  5913  000F94  24F3               	addwf	prodl,w,c
  5914  000F96  6EF6               	movwf	tblptrl,c
  5915  000F98  0E08               	movlw	high _USB_CD_Ptr
  5916  000F9A  20F4               	addwfc	prodh,w,c
  5917  000F9C  6EF7               	movwf	tblptrh,c
  5918  000F9E                     	if	0	;There are less than 3 active tblptr bytes
  5919  000F9E                     	endif
  5920  000F9E  0009               	tblrd		*+
  5921  000FA0  CFF5 F068          	movff	tablat,_inPipes	;volatile
  5922  000FA4  000A               	tblrd		*-
  5923  000FA6  CFF5 F069          	movff	tablat,_inPipes+1	;volatile
  5924                           
  5925                           ; BSR set to: 4
  5926                           ;usb_device.c: 2074: inPipes[0].wCount.byte.LB = *(inPipes[0].pSrc.bRom+2);
  5927  000FAA  0E02               	movlw	2
  5928  000FAC  0100               	movlb	0	; () banked
  5929  000FAE  2568               	addwf	_inPipes& (0+255),w,b	;volatile
  5930  000FB0  6E2D               	movwf	??_USBStdGetDscHandler& (0+255),c
  5931  000FB2  0E00               	movlw	0
  5932  000FB4  0100               	movlb	0	; () banked
  5933  000FB6  2169               	addwfc	(_inPipes+1)& (0+255),w,b	;volatile
  5934  000FB8  6E2E               	movwf	(??_USBStdGetDscHandler+1)& (0+255),c
  5935  000FBA  C02D  FFF6         	movff	??_USBStdGetDscHandler,tblptrl
  5936  000FBE  C02E  FFF7         	movff	??_USBStdGetDscHandler+1,tblptrh
  5937  000FC2  6AF8               	clrf	tblptru,c
  5938  000FC4  0E07               	movlw	(high __ramtop+-1)
  5939  000FC6  64F7               	cpfsgt	tblptrh,c
  5940  000FC8  D003               	bra	i2u215_47
  5941  000FCA  0008               	tblrd		*
  5942  000FCC  50F5               	movf	tablat,w,c
  5943  000FCE  D005               	bra	i2u215_40
  5944  000FD0                     i2u215_47:
  5945  000FD0  CFF6 FFE1          	movff	tblptrl,fsr1l
  5946  000FD4  CFF7 FFE2          	movff	tblptrh,fsr1h
  5947  000FD8  50E7               	movf	indf1,w,c
  5948  000FDA                     i2u215_40:
  5949  000FDA  0100               	movlb	0	; () banked
  5950  000FDC  6F6C               	movwf	(_inPipes+4)& (0+255),b	;volatile
  5951                           
  5952                           ; BSR set to: 0
  5953                           ;usb_device.c: 2075: inPipes[0].wCount.byte.HB = *(inPipes[0].pSrc.bRom+3);
  5954  000FDE  0E03               	movlw	3
  5955  000FE0  0100               	movlb	0	; () banked
  5956  000FE2  2568               	addwf	_inPipes& (0+255),w,b	;volatile
  5957  000FE4  6E2D               	movwf	??_USBStdGetDscHandler& (0+255),c
  5958  000FE6  0E00               	movlw	0
  5959  000FE8  0100               	movlb	0	; () banked
  5960  000FEA  2169               	addwfc	(_inPipes+1)& (0+255),w,b	;volatile
  5961  000FEC  6E2E               	movwf	(??_USBStdGetDscHandler+1)& (0+255),c
  5962  000FEE  C02D  FFF6         	movff	??_USBStdGetDscHandler,tblptrl
  5963  000FF2  C02E  FFF7         	movff	??_USBStdGetDscHandler+1,tblptrh
  5964  000FF6  6AF8               	clrf	tblptru,c
  5965  000FF8  0E07               	movlw	(high __ramtop+-1)
  5966  000FFA  64F7               	cpfsgt	tblptrh,c
  5967  000FFC  D003               	bra	i2u216_47
  5968  000FFE  0008               	tblrd		*
  5969  001000  50F5               	movf	tablat,w,c
  5970  001002  D005               	bra	i2u216_40
  5971  001004                     i2u216_47:
  5972  001004  CFF6 FFE1          	movff	tblptrl,fsr1l
  5973  001008  CFF7 FFE2          	movff	tblptrh,fsr1h
  5974  00100C  50E7               	movf	indf1,w,c
  5975  00100E                     i2u216_40:
  5976  00100E  0100               	movlb	0	; () banked
  5977  001010  6F6D               	movwf	(_inPipes+5)& (0+255),b	;volatile
  5978                           
  5979                           ;usb_device.c: 2076: }
  5980  001012  0012               	return	
  5981  001014                     i2l3096:
  5982                           
  5983                           ;usb_device.c: 2077: else
  5984                           ;usb_device.c: 2078: {
  5985                           ;usb_device.c: 2079: inPipes[0].info.Val = 0;
  5986  001014  0E00               	movlw	0
  5987  001016  0100               	movlb	0	; () banked
  5988  001018  6F6B               	movwf	(_inPipes+3)& (0+255),b	;volatile
  5989                           
  5990                           ; BSR set to: 0
  5991                           ;usb_device.c: 2080: }
  5992                           ;usb_device.c: 2081: break;
  5993  00101A  0012               	return	
  5994  00101C                     i2l3098:
  5995                           
  5996                           ;usb_device.c: 2086: if(SetupPkt.bDscIndex<3)
  5997  00101C  0E03               	movlw	3
  5998  00101E  0104               	movlb	4	; () banked
  5999  001020  6132               	cpfslt	50,b	;volatile
  6000  001022  D025               	goto	i2l3104
  6001                           
  6002                           ; BSR set to: 4
  6003                           ;usb_device.c: 2087: {
  6004                           ;usb_device.c: 2089: inPipes[0].pSrc.bRom = *(USB_SD_Ptr+SetupPkt.bDscIndex);
  6005  001024  0104               	movlb	4	; () banked
  6006  001026  5132               	movf	50,w,b	;volatile
  6007  001028  0D02               	mullw	2
  6008  00102A  0E01               	movlw	low _USB_SD_Ptr
  6009  00102C  24F3               	addwf	prodl,w,c
  6010  00102E  6EF6               	movwf	tblptrl,c
  6011  001030  0E08               	movlw	high _USB_SD_Ptr
  6012  001032  20F4               	addwfc	prodh,w,c
  6013  001034  6EF7               	movwf	tblptrh,c
  6014  001036                     	if	0	;There are less than 3 active tblptr bytes
  6015  001036                     	endif
  6016  001036  0009               	tblrd		*+
  6017  001038  CFF5 F068          	movff	tablat,_inPipes	;volatile
  6018  00103C  000A               	tblrd		*-
  6019  00103E  CFF5 F069          	movff	tablat,_inPipes+1	;volatile
  6020                           
  6021                           ; BSR set to: 4
  6022                           ;usb_device.c: 2091: inPipes[0].wCount.Val = *inPipes[0].pSrc.bRom;
  6023  001042  C068  FFF6         	movff	_inPipes,tblptrl	;volatile
  6024  001046  C069  FFF7         	movff	_inPipes+1,tblptrh	;volatile
  6025  00104A  6AF8               	clrf	tblptru,c
  6026  00104C  0E07               	movlw	(high __ramtop+-1)
  6027  00104E  64F7               	cpfsgt	tblptrh,c
  6028  001050  D003               	bra	i2u218_47
  6029  001052  0008               	tblrd		*
  6030  001054  50F5               	movf	tablat,w,c
  6031  001056  D005               	bra	i2u218_40
  6032  001058                     i2u218_47:
  6033  001058  CFF6 FFE1          	movff	tblptrl,fsr1l
  6034  00105C  CFF7 FFE2          	movff	tblptrh,fsr1h
  6035  001060  50E7               	movf	indf1,w,c
  6036  001062                     i2u218_40:
  6037  001062  6E2D               	movwf	??_USBStdGetDscHandler& (0+255),c
  6038  001064  502D               	movf	??_USBStdGetDscHandler,w,c
  6039  001066  0100               	movlb	0	; () banked
  6040  001068  6F6C               	movwf	(_inPipes+4)& (0+255),b	;volatile
  6041  00106A  6B6D               	clrf	(_inPipes+5)& (0+255),b	;volatile
  6042                           
  6043                           ;usb_device.c: 2092: }
  6044  00106C  0012               	return	
  6045  00106E                     i2l3104:
  6046                           
  6047                           ;usb_device.c: 2102: else
  6048                           ;usb_device.c: 2103: {
  6049                           ;usb_device.c: 2104: inPipes[0].info.Val = 0;
  6050  00106E  0E00               	movlw	0
  6051  001070  0100               	movlb	0	; () banked
  6052  001072  6F6B               	movwf	(_inPipes+3)& (0+255),b	;volatile
  6053                           
  6054                           ; BSR set to: 0
  6055                           ;usb_device.c: 2105: }
  6056                           ;usb_device.c: 2106: break;
  6057  001074  0012               	return	
  6058  001076                     i2l3106:
  6059                           
  6060                           ;usb_device.c: 2108: inPipes[0].info.Val = 0;
  6061  001076  0E00               	movlw	0
  6062  001078  0100               	movlb	0	; () banked
  6063  00107A  6F6B               	movwf	(_inPipes+3)& (0+255),b	;volatile
  6064                           
  6065                           ; BSR set to: 0
  6066                           ;usb_device.c: 2110: }
  6067                           
  6068                           ;usb_device.c: 2109: break;
  6069  00107C  0012               	return	
  6070  00107E                     i2l3110:
  6071                           
  6072                           ; BSR set to: 0
  6073  00107E  0104               	movlb	4	; () banked
  6074  001080  5133               	movf	51,w,b	;volatile
  6075                           
  6076                           ; Switch size 1, requested type "space"
  6077                           ; Number of cases is 3, Range of values is 1 to 3
  6078                           ; switch strategies available:
  6079                           ; Name         Instructions Cycles
  6080                           ; simple_byte           10     6 (average)
  6081                           ;	Chosen strategy is simple_byte
  6082  001082  0A01               	xorlw	1	; case 1
  6083  001084  B4D8               	btfsc	status,2,c
  6084  001086  D772               	goto	i2l3084
  6085  001088  0A03               	xorlw	3	; case 2
  6086  00108A  B4D8               	btfsc	status,2,c
  6087  00108C  D77B               	goto	i2l3088
  6088  00108E  0A01               	xorlw	1	; case 3
  6089  001090  B4D8               	btfsc	status,2,c
  6090  001092  D7C4               	goto	i2l3098
  6091  001094  D7F0               	goto	i2l3106
  6092  001096                     __end_of_USBStdGetDscHandler:
  6093                           	opt stack 0
  6094                           pclatu	equ	0xFFB
  6095                           pclath	equ	0xFFA
  6096                           tblptru	equ	0xFF8
  6097                           tblptrh	equ	0xFF7
  6098                           tblptrl	equ	0xFF6
  6099                           tablat	equ	0xFF5
  6100                           prodh	equ	0xFF4
  6101                           prodl	equ	0xFF3
  6102                           intcon	equ	0xFF2
  6103                           postinc0	equ	0xFEE
  6104                           fsr0h	equ	0xFEA
  6105                           fsr0l	equ	0xFE9
  6106                           wreg	equ	0xFE8
  6107                           indf1	equ	0xFE7
  6108                           fsr1h	equ	0xFE2
  6109                           fsr1l	equ	0xFE1
  6110                           bsr	equ	0xFE0
  6111                           indf2	equ	0xFDF
  6112                           postinc2	equ	0xFDE
  6113                           postdec2	equ	0xFDD
  6114                           plusw2	equ	0xFDB
  6115                           fsr2h	equ	0xFDA
  6116                           fsr2l	equ	0xFD9
  6117                           status	equ	0xFD8
  6118                           
  6119 ;; *************** function _USBStdFeatureReqHandler *****************
  6120 ;; Defined at:
  6121 ;;		line 2754 in file "../mla/v2017_03_06/framework/usb/src/usb_device.c"
  6122 ;; Parameters:    Size  Location     Type
  6123 ;;		None
  6124 ;; Auto vars:     Size  Location     Type
  6125 ;;  p               2   25[COMRAM] PTR struct __BDT
  6126 ;;		 -> RAM(2047), NULL(0), BDT(48), 
  6127 ;;  pUEP            2   22[COMRAM] PTR unsigned char 
  6128 ;;		 -> UEP0(1), 
  6129 ;;  current_ep_d    1   24[COMRAM] struct .
  6130 ;; Return value:  Size  Location     Type
  6131 ;;                  1    wreg      void 
  6132 ;; Registers used:
  6133 ;;		wreg, fsr2l, fsr2h, status,2, status,0, prodl, prodh, cstack
  6134 ;; Tracked objects:
  6135 ;;		On entry : 0/0
  6136 ;;		On exit  : 0/0
  6137 ;;		Unchanged: 0/0
  6138 ;; Data sizes:     COMRAM   BANK0   BANK1   BANK2   BANK3   BANK4   BANK5   BANK6   BANK7
  6139 ;;      Params:         0       0       0       0       0       0       0       0       0
  6140 ;;      Locals:         5       0       0       0       0       0       0       0       0
  6141 ;;      Temps:          1       0       0       0       0       0       0       0       0
  6142 ;;      Totals:         6       0       0       0       0       0       0       0       0
  6143 ;;Total ram usage:        6 bytes
  6144 ;; Hardware stack levels used:    1
  6145 ;; Hardware stack levels required when called:    5
  6146 ;; This function calls:
  6147 ;;		_USER_USB_CALLBACK_EVENT_HANDLER
  6148 ;; This function is called by:
  6149 ;;		_USBCheckStdRequest
  6150 ;; This function uses a non-reentrant model
  6151 ;;
  6152                           
  6153                           	psect	text31
  6154  0008CC                     __ptext31:
  6155                           	opt stack 0
  6156  0008CC                     _USBStdFeatureReqHandler:
  6157                           	opt stack 15
  6158                           
  6159                           ;usb_device.c: 2756: BDT_ENTRY *p;
  6160                           ;usb_device.c: 2757: EP_STATUS current_ep_data;
  6161                           ;usb_device.c: 2761: unsigned char* pUEP;
  6162                           ;usb_device.c: 2799: if((SetupPkt.bFeature == 1)&&
  6163                           ;usb_device.c: 2800: (SetupPkt.Recipient == (0x00)))
  6164                           
  6165                           ;incstack = 0
  6166  0008CC  0104               	movlb	4	; () banked
  6167  0008CE  0532               	decf	50,w,b	;volatile
  6168  0008D0  A4D8               	btfss	status,2,c
  6169  0008D2  D011               	goto	i2l461
  6170                           
  6171                           ; BSR set to: 4
  6172  0008D4  0104               	movlb	4	; () banked
  6173  0008D6  5130               	movf	48,w,b	;volatile
  6174  0008D8  0B1F               	andlw	31
  6175  0008DA  0900               	iorlw	0
  6176  0008DC  A4D8               	btfss	status,2,c
  6177  0008DE  D00B               	goto	i2l461
  6178                           
  6179                           ; BSR set to: 4
  6180                           ;usb_device.c: 2801: {
  6181                           ;usb_device.c: 2802: inPipes[0].info.bits.busy = 1;
  6182  0008E0  0100               	movlb	0	; () banked
  6183  0008E2  8F6B               	bsf	(_inPipes+3)& (0+255),7,b	;volatile
  6184                           
  6185                           ; BSR set to: 0
  6186                           ;usb_device.c: 2803: if(SetupPkt.bRequest == 3)
  6187  0008E4  0E03               	movlw	3
  6188  0008E6  0104               	movlb	4	; () banked
  6189  0008E8  1931               	xorwf	49,w,b	;volatile
  6190  0008EA  A4D8               	btfss	status,2,c
  6191  0008EC  D002               	goto	i2l3150
  6192                           
  6193                           ; BSR set to: 4
  6194                           ;usb_device.c: 2804: RemoteWakeup = 1;
  6195  0008EE  0E01               	movlw	1
  6196  0008F0  D001               	goto	L6
  6197  0008F2                     i2l3150:
  6198                           
  6199                           ; BSR set to: 4
  6200                           ;usb_device.c: 2805: else
  6201                           ;usb_device.c: 2806: RemoteWakeup = 0;
  6202  0008F2  0E00               	movlw	0
  6203  0008F4                     L6:
  6204  0008F4  6E25               	movwf	_RemoteWakeup,c	;volatile
  6205  0008F6                     i2l461:
  6206                           
  6207                           ; BSR set to: 4
  6208                           ;usb_device.c: 2807: }
  6209                           ;usb_device.c: 2810: if((SetupPkt.bFeature == 0)&&
  6210                           ;usb_device.c: 2811: (SetupPkt.Recipient == (0x02))&&
  6211                           ;usb_device.c: 2812: (SetupPkt.EPNum != 0) && (SetupPkt.EPNum <= 2)&&
  6212                           ;usb_device.c: 2813: (USBDeviceState == CONFIGURED_STATE))
  6213  0008F6  0104               	movlb	4	; () banked
  6214  0008F8  5132               	movf	50,w,b	;volatile
  6215  0008FA  A4D8               	btfss	status,2,c
  6216  0008FC  0012               	return	
  6217                           
  6218                           ; BSR set to: 4
  6219  0008FE  0104               	movlb	4	; () banked
  6220  000900  5130               	movf	48,w,b	;volatile
  6221  000902  0B1F               	andlw	31
  6222  000904  0A02               	xorlw	2
  6223  000906  A4D8               	btfss	status,2,c
  6224  000908  0012               	return	
  6225                           
  6226                           ; BSR set to: 4
  6227  00090A  0104               	movlb	4	; () banked
  6228  00090C  5134               	movf	52,w,b	;volatile
  6229  00090E  0B0F               	andlw	15
  6230  000910  0900               	iorlw	0
  6231  000912  B4D8               	btfsc	status,2,c
  6232  000914  0012               	return	
  6233                           
  6234                           ; BSR set to: 4
  6235  000916  0104               	movlb	4	; () banked
  6236  000918  5134               	movf	52,w,b	;volatile
  6237  00091A  0B0F               	andlw	15
  6238  00091C  6E42               	movwf	??_USBStdFeatureReqHandler& (0+255),c
  6239  00091E  0E03               	movlw	3
  6240  000920  6042               	cpfslt	??_USBStdFeatureReqHandler,c
  6241  000922  0012               	return	
  6242                           
  6243                           ; BSR set to: 4
  6244  000924  0E20               	movlw	32
  6245  000926  1828               	xorwf	_USBDeviceState,w,c	;volatile
  6246  000928  A4D8               	btfss	status,2,c
  6247  00092A  0012               	return	
  6248                           
  6249                           ; BSR set to: 4
  6250                           ;usb_device.c: 2814: {
  6251                           ;usb_device.c: 2817: inPipes[0].info.bits.busy = 1;
  6252  00092C  0100               	movlb	0	; () banked
  6253  00092E  8F6B               	bsf	(_inPipes+3)& (0+255),7,b	;volatile
  6254                           
  6255                           ;usb_device.c: 2820: if(SetupPkt.EPDir == 0)
  6256  000930  0104               	movlb	4	; () banked
  6257  000932  BF34               	btfsc	52,7,b	;volatile
  6258  000934  D01B               	goto	i2l3164
  6259                           
  6260                           ; BSR set to: 4
  6261                           ;usb_device.c: 2821: {
  6262                           ;usb_device.c: 2822: p = (BDT_ENTRY*)pBDTEntryOut[SetupPkt.EPNum];
  6263  000936  0104               	movlb	4	; () banked
  6264  000938  5134               	movf	52,w,b	;volatile
  6265  00093A  0B0F               	andlw	15
  6266  00093C  6E42               	movwf	??_USBStdFeatureReqHandler& (0+255),c
  6267  00093E  5042               	movf	??_USBStdFeatureReqHandler,w,c
  6268  000940  0D02               	mullw	2
  6269  000942  0E74               	movlw	low _pBDTEntryOut
  6270  000944  24F3               	addwf	prodl,w,c
  6271  000946  6ED9               	movwf	fsr2l,c
  6272  000948  0E00               	movlw	high _pBDTEntryOut
  6273  00094A  20F4               	addwfc	prodh,w,c
  6274  00094C  6EDA               	movwf	fsr2h,c
  6275  00094E  CFDE F046          	movff	postinc2,USBStdFeatureReqHandler@p
  6276  000952  CFDD F047          	movff	postdec2,USBStdFeatureReqHandler@p+1
  6277                           
  6278                           ;usb_device.c: 2823: current_ep_data.Val = ep_data_out[SetupPkt.EPNum].Val;
  6279  000956  0104               	movlb	4	; () banked
  6280  000958  5134               	movf	52,w,b	;volatile
  6281  00095A  0B0F               	andlw	15
  6282  00095C  6E42               	movwf	??_USBStdFeatureReqHandler& (0+255),c
  6283  00095E  5042               	movf	??_USBStdFeatureReqHandler,w,c
  6284  000960  0D01               	mullw	1
  6285  000962  0E7E               	movlw	low _ep_data_out
  6286  000964  24F3               	addwf	prodl,w,c
  6287  000966  6ED9               	movwf	fsr2l,c
  6288  000968  0E00               	movlw	high _ep_data_out
  6289  00096A  D01A               	goto	L7
  6290  00096C                     i2l3164:
  6291                           
  6292                           ; BSR set to: 4
  6293                           ;usb_device.c: 2825: else
  6294                           ;usb_device.c: 2826: {
  6295                           ;usb_device.c: 2827: p = (BDT_ENTRY*)pBDTEntryIn[SetupPkt.EPNum];
  6296  00096C  0104               	movlb	4	; () banked
  6297  00096E  5134               	movf	52,w,b	;volatile
  6298  000970  0B0F               	andlw	15
  6299  000972  6E42               	movwf	??_USBStdFeatureReqHandler& (0+255),c
  6300  000974  5042               	movf	??_USBStdFeatureReqHandler,w,c
  6301  000976  0D02               	mullw	2
  6302  000978  0E6E               	movlw	low _pBDTEntryIn
  6303  00097A  24F3               	addwf	prodl,w,c
  6304  00097C  6ED9               	movwf	fsr2l,c
  6305  00097E  0E00               	movlw	high _pBDTEntryIn
  6306  000980  20F4               	addwfc	prodh,w,c
  6307  000982  6EDA               	movwf	fsr2h,c
  6308  000984  CFDE F046          	movff	postinc2,USBStdFeatureReqHandler@p
  6309  000988  CFDD F047          	movff	postdec2,USBStdFeatureReqHandler@p+1
  6310                           
  6311                           ;usb_device.c: 2828: current_ep_data.Val = ep_data_in[SetupPkt.EPNum].Val;
  6312  00098C  0104               	movlb	4	; () banked
  6313  00098E  5134               	movf	52,w,b	;volatile
  6314  000990  0B0F               	andlw	15
  6315  000992  6E42               	movwf	??_USBStdFeatureReqHandler& (0+255),c
  6316  000994  5042               	movf	??_USBStdFeatureReqHandler,w,c
  6317  000996  0D01               	mullw	1
  6318  000998  0E81               	movlw	low _ep_data_in
  6319  00099A  24F3               	addwf	prodl,w,c
  6320  00099C  6ED9               	movwf	fsr2l,c
  6321  00099E  0E00               	movlw	high _ep_data_in
  6322  0009A0                     L7:
  6323  0009A0  20F4               	addwfc	prodh,w,c
  6324  0009A2  6EDA               	movwf	fsr2h,c
  6325  0009A4  50DF               	movf	indf2,w,c
  6326  0009A6  6E45               	movwf	USBStdFeatureReqHandler@current_ep_data,c
  6327                           
  6328                           ; BSR set to: 4
  6329                           ;usb_device.c: 2829: }
  6330                           ;usb_device.c: 2835: if(current_ep_data.bits.ping_pong_state == 0)
  6331                           
  6332                           ; BSR set to: 4
  6333  0009A8  B045               	btfsc	USBStdFeatureReqHandler@current_ep_data,0,c
  6334  0009AA  D006               	goto	i2l3170
  6335                           
  6336                           ; BSR set to: 4
  6337                           ;usb_device.c: 2836: {
  6338                           ;usb_device.c: 2837: p = (BDT_ENTRY*)(((uintptr_t)p) & (~0x0004));
  6339  0009AC  0EFB               	movlw	251
  6340  0009AE  1446               	andwf	USBStdFeatureReqHandler@p,w,c
  6341  0009B0  6E46               	movwf	USBStdFeatureReqHandler@p,c
  6342  0009B2  0EFF               	movlw	255
  6343  0009B4  1447               	andwf	USBStdFeatureReqHandler@p+1,w,c
  6344  0009B6  D004               	goto	L8
  6345  0009B8                     i2l3170:
  6346                           
  6347                           ; BSR set to: 4
  6348                           ;usb_device.c: 2839: else
  6349                           ;usb_device.c: 2840: {
  6350                           ;usb_device.c: 2841: p = (BDT_ENTRY*)(((uintptr_t)p) | 0x0004);
  6351  0009B8  0E04               	movlw	4
  6352  0009BA  1046               	iorwf	USBStdFeatureReqHandler@p,w,c
  6353  0009BC  6E46               	movwf	USBStdFeatureReqHandler@p,c
  6354  0009BE  5047               	movf	USBStdFeatureReqHandler@p+1,w,c
  6355  0009C0                     L8:
  6356  0009C0  6E47               	movwf	USBStdFeatureReqHandler@p+1,c
  6357                           
  6358                           ; BSR set to: 4
  6359                           ;usb_device.c: 2842: }
  6360                           ;usb_device.c: 2847: if(SetupPkt.EPDir == 0)
  6361                           
  6362                           ; BSR set to: 4
  6363  0009C2  0104               	movlb	4	; () banked
  6364  0009C4  BF34               	btfsc	52,7,b	;volatile
  6365  0009C6  D00B               	goto	i2l3176
  6366                           
  6367                           ; BSR set to: 4
  6368                           ;usb_device.c: 2848: {
  6369                           ;usb_device.c: 2849: pBDTEntryOut[SetupPkt.EPNum] = (volatile BDT_ENTRY *)p;
  6370  0009C8  0104               	movlb	4	; () banked
  6371  0009CA  5134               	movf	52,w,b	;volatile
  6372  0009CC  0B0F               	andlw	15
  6373  0009CE  6E42               	movwf	??_USBStdFeatureReqHandler& (0+255),c
  6374  0009D0  5042               	movf	??_USBStdFeatureReqHandler,w,c
  6375  0009D2  0D02               	mullw	2
  6376  0009D4  0E74               	movlw	low _pBDTEntryOut
  6377  0009D6  24F3               	addwf	prodl,w,c
  6378  0009D8  6ED9               	movwf	fsr2l,c
  6379  0009DA  0E00               	movlw	high _pBDTEntryOut
  6380  0009DC  D00A               	goto	L9
  6381  0009DE                     i2l3176:
  6382                           
  6383                           ; BSR set to: 4
  6384                           ;usb_device.c: 2851: else
  6385                           ;usb_device.c: 2852: {
  6386                           ;usb_device.c: 2853: pBDTEntryIn[SetupPkt.EPNum] = (volatile BDT_ENTRY *)p;
  6387  0009DE  0104               	movlb	4	; () banked
  6388  0009E0  5134               	movf	52,w,b	;volatile
  6389  0009E2  0B0F               	andlw	15
  6390  0009E4  6E42               	movwf	??_USBStdFeatureReqHandler& (0+255),c
  6391  0009E6  5042               	movf	??_USBStdFeatureReqHandler,w,c
  6392  0009E8  0D02               	mullw	2
  6393  0009EA  0E6E               	movlw	low _pBDTEntryIn
  6394  0009EC  24F3               	addwf	prodl,w,c
  6395  0009EE  6ED9               	movwf	fsr2l,c
  6396  0009F0  0E00               	movlw	high _pBDTEntryIn
  6397  0009F2                     L9:
  6398  0009F2  20F4               	addwfc	prodh,w,c
  6399  0009F4  6EDA               	movwf	fsr2h,c
  6400  0009F6  C046  FFDE         	movff	USBStdFeatureReqHandler@p,postinc2
  6401  0009FA  C047  FFDD         	movff	USBStdFeatureReqHandler@p+1,postdec2
  6402                           
  6403                           ; BSR set to: 4
  6404                           ;usb_device.c: 2854: }
  6405                           ;usb_device.c: 2857: if(SetupPkt.bRequest == 3)
  6406                           
  6407                           ; BSR set to: 4
  6408  0009FE  0E03               	movlw	3
  6409  000A00  0104               	movlb	4	; () banked
  6410  000A02  1931               	xorwf	49,w,b	;volatile
  6411  000A04  A4D8               	btfss	status,2,c
  6412  000A06  D02F               	goto	i2l3192
  6413                           
  6414                           ; BSR set to: 4
  6415                           ;usb_device.c: 2858: {
  6416                           ;usb_device.c: 2859: if(p->STAT.UOWN == 1)
  6417  000A08  C046  FFD9         	movff	USBStdFeatureReqHandler@p,fsr2l
  6418  000A0C  C047  FFDA         	movff	USBStdFeatureReqHandler@p+1,fsr2h
  6419  000A10  AEDF               	btfss	indf2,7,c
  6420  000A12  D01C               	goto	i2l3188
  6421                           
  6422                           ; BSR set to: 4
  6423                           ;usb_device.c: 2860: {
  6424                           ;usb_device.c: 2863: if(SetupPkt.EPDir == 0)
  6425  000A14  0104               	movlb	4	; () banked
  6426  000A16  BF34               	btfsc	52,7,b	;volatile
  6427  000A18  D00B               	goto	i2l3186
  6428                           
  6429                           ; BSR set to: 4
  6430                           ;usb_device.c: 2864: {
  6431                           ;usb_device.c: 2865: ep_data_out[SetupPkt.EPNum].bits.transfer_terminated = 1;
  6432  000A1A  0104               	movlb	4	; () banked
  6433  000A1C  5134               	movf	52,w,b	;volatile
  6434  000A1E  0B0F               	andlw	15
  6435  000A20  6E42               	movwf	??_USBStdFeatureReqHandler& (0+255),c
  6436  000A22  5042               	movf	??_USBStdFeatureReqHandler,w,c
  6437  000A24  0D01               	mullw	1
  6438  000A26  0E7E               	movlw	low _ep_data_out
  6439  000A28  24F3               	addwf	prodl,w,c
  6440  000A2A  6ED9               	movwf	fsr2l,c
  6441  000A2C  0E00               	movlw	high _ep_data_out
  6442  000A2E  D00A               	goto	L10
  6443  000A30                     i2l3186:
  6444                           
  6445                           ;usb_device.c: 2867: else
  6446                           ;usb_device.c: 2868: {
  6447                           ;usb_device.c: 2869: ep_data_in[SetupPkt.EPNum].bits.transfer_terminated = 1;
  6448  000A30  0104               	movlb	4	; () banked
  6449  000A32  5134               	movf	52,w,b	;volatile
  6450  000A34  0B0F               	andlw	15
  6451  000A36  6E42               	movwf	??_USBStdFeatureReqHandler& (0+255),c
  6452  000A38  5042               	movf	??_USBStdFeatureReqHandler,w,c
  6453  000A3A  0D01               	mullw	1
  6454  000A3C  0E81               	movlw	low _ep_data_in
  6455  000A3E  24F3               	addwf	prodl,w,c
  6456  000A40  6ED9               	movwf	fsr2l,c
  6457  000A42  0E00               	movlw	high _ep_data_in
  6458  000A44                     L10:
  6459  000A44  20F4               	addwfc	prodh,w,c
  6460  000A46  6EDA               	movwf	fsr2h,c
  6461  000A48  0100               	movlb	0	; () banked
  6462  000A4A  82DF               	bsf	indf2,1,c
  6463  000A4C                     i2l3188:
  6464                           
  6465                           ;usb_device.c: 2870: }
  6466                           ;usb_device.c: 2871: }
  6467                           ;usb_device.c: 2874: p->STAT.Val |= 0x04;
  6468  000A4C  C046  FFD9         	movff	USBStdFeatureReqHandler@p,fsr2l
  6469  000A50  C047  FFDA         	movff	USBStdFeatureReqHandler@p+1,fsr2h
  6470  000A54  0E00               	movlw	0
  6471  000A56  84DB               	bsf	plusw2,2,c
  6472                           
  6473                           ;usb_device.c: 2875: p->STAT.Val |= 0x80;
  6474  000A58  C046  FFD9         	movff	USBStdFeatureReqHandler@p,fsr2l
  6475  000A5C  C047  FFDA         	movff	USBStdFeatureReqHandler@p+1,fsr2h
  6476  000A60  0E00               	movlw	0
  6477  000A62  8EDB               	bsf	plusw2,7,c
  6478                           
  6479                           ;usb_device.c: 2876: }
  6480  000A64  0012               	return	
  6481  000A66                     i2l3192:
  6482                           
  6483                           ;usb_device.c: 2877: else
  6484                           ;usb_device.c: 2878: {
  6485                           ;usb_device.c: 2882: p = (BDT_ENTRY*)(((uintptr_t)p) ^ 0x0004);
  6486  000A66  0E04               	movlw	4
  6487  000A68  1846               	xorwf	USBStdFeatureReqHandler@p,w,c
  6488  000A6A  6E46               	movwf	USBStdFeatureReqHandler@p,c
  6489  000A6C  5047               	movf	USBStdFeatureReqHandler@p+1,w,c
  6490  000A6E  6E47               	movwf	USBStdFeatureReqHandler@p+1,c
  6491                           
  6492                           ;usb_device.c: 2884: if(p->STAT.UOWN == 1)
  6493  000A70  C046  FFD9         	movff	USBStdFeatureReqHandler@p,fsr2l
  6494  000A74  C047  FFDA         	movff	USBStdFeatureReqHandler@p+1,fsr2h
  6495  000A78  AEDF               	btfss	indf2,7,c
  6496  000A7A  D01B               	goto	i2l3202
  6497                           
  6498                           ;usb_device.c: 2885: {
  6499                           ;usb_device.c: 2888: p->STAT.Val &= (~0x80);
  6500  000A7C  C046  FFD9         	movff	USBStdFeatureReqHandler@p,fsr2l
  6501  000A80  C047  FFDA         	movff	USBStdFeatureReqHandler@p+1,fsr2h
  6502  000A84  0E7F               	movlw	127
  6503  000A86  16DF               	andwf	indf2,f,c
  6504                           
  6505                           ;usb_device.c: 2889: p->STAT.Val |= 0x40;
  6506  000A88  C046  FFD9         	movff	USBStdFeatureReqHandler@p,fsr2l
  6507  000A8C  C047  FFDA         	movff	USBStdFeatureReqHandler@p+1,fsr2h
  6508  000A90  0E00               	movlw	0
  6509  000A92  8CDB               	bsf	plusw2,6,c
  6510                           
  6511                           ;usb_device.c: 2890: USER_USB_CALLBACK_EVENT_HANDLER(EVENT_TRANSFER_TERMINATED,p,sizeof(
      +                          p));
  6512  000A94  0E00               	movlw	0
  6513  000A96  6E3B               	movwf	USER_USB_CALLBACK_EVENT_HANDLER@event+1,c
  6514  000A98  0E05               	movlw	5
  6515  000A9A  6E3A               	movwf	USER_USB_CALLBACK_EVENT_HANDLER@event,c
  6516  000A9C  C046  F03C         	movff	USBStdFeatureReqHandler@p,USER_USB_CALLBACK_EVENT_HANDLER@pdata
  6517  000AA0  C047  F03D         	movff	USBStdFeatureReqHandler@p+1,USER_USB_CALLBACK_EVENT_HANDLER@pdata+1
  6518  000AA4  0E00               	movlw	0
  6519  000AA6  6E3F               	movwf	USER_USB_CALLBACK_EVENT_HANDLER@size+1,c
  6520  000AA8  0E02               	movlw	2
  6521  000AAA  6E3E               	movwf	USER_USB_CALLBACK_EVENT_HANDLER@size,c
  6522  000AAC  ECE2  F010         	call	_USER_USB_CALLBACK_EVENT_HANDLER	;wreg free
  6523                           
  6524                           ;usb_device.c: 2891: }
  6525  000AB0  D006               	goto	i2l3204
  6526  000AB2                     i2l3202:
  6527                           
  6528                           ;usb_device.c: 2892: else
  6529                           ;usb_device.c: 2893: {
  6530                           ;usb_device.c: 2895: p->STAT.Val |= 0x40;
  6531  000AB2  C046  FFD9         	movff	USBStdFeatureReqHandler@p,fsr2l
  6532  000AB6  C047  FFDA         	movff	USBStdFeatureReqHandler@p+1,fsr2h
  6533  000ABA  0E00               	movlw	0
  6534  000ABC  8CDB               	bsf	plusw2,6,c
  6535  000ABE                     i2l3204:
  6536                           
  6537                           ;usb_device.c: 2896: }
  6538                           ;usb_device.c: 2900: p = (BDT_ENTRY*)(((uintptr_t)p) ^ 0x0004);
  6539  000ABE  0E04               	movlw	4
  6540  000AC0  1846               	xorwf	USBStdFeatureReqHandler@p,w,c
  6541  000AC2  6E46               	movwf	USBStdFeatureReqHandler@p,c
  6542  000AC4  5047               	movf	USBStdFeatureReqHandler@p+1,w,c
  6543  000AC6  6E47               	movwf	USBStdFeatureReqHandler@p+1,c
  6544                           
  6545                           ;usb_device.c: 2906: if((current_ep_data.bits.transfer_terminated != 0) || (p->STAT.UOWN
      +                           == 1))
  6546  000AC8  B245               	btfsc	USBStdFeatureReqHandler@current_ep_data,1,c
  6547  000ACA  D006               	goto	i2l480
  6548  000ACC  C046  FFD9         	movff	USBStdFeatureReqHandler@p,fsr2l
  6549  000AD0  C047  FFDA         	movff	USBStdFeatureReqHandler@p+1,fsr2h
  6550  000AD4  AEDF               	btfss	indf2,7,c
  6551  000AD6  D031               	goto	i2l3218
  6552  000AD8                     i2l480:
  6553                           
  6554                           ;usb_device.c: 2907: {
  6555                           ;usb_device.c: 2908: if(SetupPkt.EPDir == 0)
  6556  000AD8  0104               	movlb	4	; () banked
  6557  000ADA  BF34               	btfsc	52,7,b	;volatile
  6558  000ADC  D00B               	goto	i2l3212
  6559                           
  6560                           ; BSR set to: 4
  6561                           ;usb_device.c: 2909: {
  6562                           ;usb_device.c: 2910: ep_data_out[SetupPkt.EPNum].bits.transfer_terminated = 0;
  6563  000ADE  0104               	movlb	4	; () banked
  6564  000AE0  5134               	movf	52,w,b	;volatile
  6565  000AE2  0B0F               	andlw	15
  6566  000AE4  6E42               	movwf	??_USBStdFeatureReqHandler& (0+255),c
  6567  000AE6  5042               	movf	??_USBStdFeatureReqHandler,w,c
  6568  000AE8  0D01               	mullw	1
  6569  000AEA  0E7E               	movlw	low _ep_data_out
  6570  000AEC  24F3               	addwf	prodl,w,c
  6571  000AEE  6ED9               	movwf	fsr2l,c
  6572  000AF0  0E00               	movlw	high _ep_data_out
  6573  000AF2  D00A               	goto	L11
  6574  000AF4                     i2l3212:
  6575                           
  6576                           ;usb_device.c: 2912: else
  6577                           ;usb_device.c: 2913: {
  6578                           ;usb_device.c: 2914: ep_data_in[SetupPkt.EPNum].bits.transfer_terminated = 0;
  6579  000AF4  0104               	movlb	4	; () banked
  6580  000AF6  5134               	movf	52,w,b	;volatile
  6581  000AF8  0B0F               	andlw	15
  6582  000AFA  6E42               	movwf	??_USBStdFeatureReqHandler& (0+255),c
  6583  000AFC  5042               	movf	??_USBStdFeatureReqHandler,w,c
  6584  000AFE  0D01               	mullw	1
  6585  000B00  0E81               	movlw	low _ep_data_in
  6586  000B02  24F3               	addwf	prodl,w,c
  6587  000B04  6ED9               	movwf	fsr2l,c
  6588  000B06  0E00               	movlw	high _ep_data_in
  6589  000B08                     L11:
  6590  000B08  20F4               	addwfc	prodh,w,c
  6591  000B0A  6EDA               	movwf	fsr2h,c
  6592  000B0C  0100               	movlb	0	; () banked
  6593  000B0E  92DF               	bcf	indf2,1,c
  6594                           
  6595                           ; BSR set to: 0
  6596                           ;usb_device.c: 2915: }
  6597                           ;usb_device.c: 2917: p->STAT.Val &= ~(0x80 | 0x40 | 0x04);
  6598                           
  6599                           ; BSR set to: 0
  6600  000B10  C046  FFD9         	movff	USBStdFeatureReqHandler@p,fsr2l
  6601  000B14  C047  FFDA         	movff	USBStdFeatureReqHandler@p+1,fsr2h
  6602  000B18  0E3B               	movlw	59
  6603  000B1A  16DF               	andwf	indf2,f,c
  6604                           
  6605                           ; BSR set to: 0
  6606                           ;usb_device.c: 2920: USER_USB_CALLBACK_EVENT_HANDLER(EVENT_TRANSFER_TERMINATED,p,sizeof(
      +                          p));
  6607  000B1C  0E00               	movlw	0
  6608  000B1E  6E3B               	movwf	USER_USB_CALLBACK_EVENT_HANDLER@event+1,c
  6609  000B20  0E05               	movlw	5
  6610  000B22  6E3A               	movwf	USER_USB_CALLBACK_EVENT_HANDLER@event,c
  6611  000B24  C046  F03C         	movff	USBStdFeatureReqHandler@p,USER_USB_CALLBACK_EVENT_HANDLER@pdata
  6612  000B28  C047  F03D         	movff	USBStdFeatureReqHandler@p+1,USER_USB_CALLBACK_EVENT_HANDLER@pdata+1
  6613  000B2C  0E00               	movlw	0
  6614  000B2E  6E3F               	movwf	USER_USB_CALLBACK_EVENT_HANDLER@size+1,c
  6615  000B30  0E02               	movlw	2
  6616  000B32  6E3E               	movwf	USER_USB_CALLBACK_EVENT_HANDLER@size,c
  6617  000B34  ECE2  F010         	call	_USER_USB_CALLBACK_EVENT_HANDLER	;wreg free
  6618                           
  6619                           ;usb_device.c: 2921: }
  6620  000B38  D006               	goto	i2l3220
  6621  000B3A                     i2l3218:
  6622                           
  6623                           ;usb_device.c: 2922: else
  6624                           ;usb_device.c: 2923: {
  6625                           ;usb_device.c: 2925: p->STAT.Val &= ~(0x80 | 0x40 | 0x04);
  6626  000B3A  C046  FFD9         	movff	USBStdFeatureReqHandler@p,fsr2l
  6627  000B3E  C047  FFDA         	movff	USBStdFeatureReqHandler@p+1,fsr2h
  6628  000B42  0E3B               	movlw	59
  6629  000B44  16DF               	andwf	indf2,f,c
  6630  000B46                     i2l3220:
  6631                           
  6632                           ;usb_device.c: 2926: }
  6633                           ;usb_device.c: 2973: pUEP = (unsigned char*)(&UEP0+SetupPkt.EPNum);
  6634  000B46  0104               	movlb	4	; () banked
  6635  000B48  5134               	movf	52,w,b	;volatile
  6636  000B4A  0B0F               	andlw	15
  6637  000B4C  6E42               	movwf	??_USBStdFeatureReqHandler& (0+255),c
  6638  000B4E  5042               	movf	??_USBStdFeatureReqHandler,w,c
  6639  000B50  0D01               	mullw	1
  6640  000B52  0E70               	movlw	112
  6641  000B54  24F3               	addwf	prodl,w,c
  6642  000B56  6E43               	movwf	USBStdFeatureReqHandler@pUEP,c
  6643  000B58  0E0F               	movlw	15
  6644  000B5A  20F4               	addwfc	prodh,w,c
  6645  000B5C  6E44               	movwf	USBStdFeatureReqHandler@pUEP+1,c
  6646                           
  6647                           ; BSR set to: 4
  6648                           ;usb_device.c: 2977: *pUEP &= ~0x0001;
  6649  000B5E  C043  FFD9         	movff	USBStdFeatureReqHandler@pUEP,fsr2l
  6650  000B62  C044  FFDA         	movff	USBStdFeatureReqHandler@pUEP+1,fsr2h
  6651  000B66  0EFE               	movlw	254
  6652  000B68  16DF               	andwf	indf2,f,c
  6653                           
  6654                           ; BSR set to: 4
  6655  000B6A  0012               	return	
  6656  000B6C                     __end_of_USBStdFeatureReqHandler:
  6657                           	opt stack 0
  6658                           pclatu	equ	0xFFB
  6659                           pclath	equ	0xFFA
  6660                           tblptru	equ	0xFF8
  6661                           tblptrh	equ	0xFF7
  6662                           tblptrl	equ	0xFF6
  6663                           tablat	equ	0xFF5
  6664                           prodh	equ	0xFF4
  6665                           prodl	equ	0xFF3
  6666                           intcon	equ	0xFF2
  6667                           postinc0	equ	0xFEE
  6668                           fsr0h	equ	0xFEA
  6669                           fsr0l	equ	0xFE9
  6670                           wreg	equ	0xFE8
  6671                           indf1	equ	0xFE7
  6672                           fsr1h	equ	0xFE2
  6673                           fsr1l	equ	0xFE1
  6674                           bsr	equ	0xFE0
  6675                           indf2	equ	0xFDF
  6676                           postinc2	equ	0xFDE
  6677                           postdec2	equ	0xFDD
  6678                           plusw2	equ	0xFDB
  6679                           fsr2h	equ	0xFDA
  6680                           fsr2l	equ	0xFD9
  6681                           status	equ	0xFD8
  6682                           
  6683 ;; *************** function _USER_USB_CALLBACK_EVENT_HANDLER *****************
  6684 ;; Defined at:
  6685 ;;		line 96 in file "main_cdc.c"
  6686 ;; Parameters:    Size  Location     Type
  6687 ;;  event           2   13[COMRAM] enum E3369
  6688 ;;  pdata           2   15[COMRAM] PTR void 
  6689 ;;		 -> RAM(2047), USTATcopy(1), USBActiveConfiguration(1), NULL(0), 
  6690 ;;		 -> BDT(48), 
  6691 ;;  size            2   17[COMRAM] unsigned int 
  6692 ;; Auto vars:     Size  Location     Type
  6693 ;;		None
  6694 ;; Return value:  Size  Location     Type
  6695 ;;                  1    wreg      unsigned char 
  6696 ;; Registers used:
  6697 ;;		wreg, fsr2l, fsr2h, status,2, status,0, prodl, prodh, cstack
  6698 ;; Tracked objects:
  6699 ;;		On entry : 0/0
  6700 ;;		On exit  : 0/0
  6701 ;;		Unchanged: 0/0
  6702 ;; Data sizes:     COMRAM   BANK0   BANK1   BANK2   BANK3   BANK4   BANK5   BANK6   BANK7
  6703 ;;      Params:         6       0       0       0       0       0       0       0       0
  6704 ;;      Locals:         0       0       0       0       0       0       0       0       0
  6705 ;;      Temps:          2       0       0       0       0       0       0       0       0
  6706 ;;      Totals:         8       0       0       0       0       0       0       0       0
  6707 ;;Total ram usage:        8 bytes
  6708 ;; Hardware stack levels used:    1
  6709 ;; Hardware stack levels required when called:    4
  6710 ;; This function calls:
  6711 ;;		_APP_DeviceCDCEmulatorInitialize
  6712 ;;		_USBCheckCDCRequest
  6713 ;; This function is called by:
  6714 ;;		_USBDeviceTasks
  6715 ;;		_USBStdSetCfgHandler
  6716 ;;		_USBSuspend
  6717 ;;		_USBWakeFromSuspend
  6718 ;;		_USBCtrlTrfSetupHandler
  6719 ;;		_USBCheckStdRequest
  6720 ;;		_USBStdFeatureReqHandler
  6721 ;; This function uses a non-reentrant model
  6722 ;;
  6723                           
  6724                           	psect	text32
  6725  0021C4                     __ptext32:
  6726                           	opt stack 0
  6727  0021C4                     _USER_USB_CALLBACK_EVENT_HANDLER:
  6728                           	opt stack 19
  6729                           
  6730                           ;main_cdc.c: 98: switch(event)
  6731                           
  6732                           ;incstack = 0
  6733  0021C4  D006               	goto	i2l2902
  6734  0021C6                     i2l2896:
  6735                           
  6736                           ;main_cdc.c: 112: APP_DeviceCDCEmulatorInitialize();
  6737  0021C6  ECAF  F010         	call	_APP_DeviceCDCEmulatorInitialize	;wreg free
  6738                           
  6739                           ;main_cdc.c: 115: break;
  6740                           
  6741                           ;main_cdc.c: 114: case EVENT_SET_DESCRIPTOR:
  6742                           
  6743                           ;main_cdc.c: 113: break;
  6744  0021CA  0012               	return	
  6745  0021CC                     i2l2898:
  6746                           
  6747                           ;main_cdc.c: 119: USBCheckCDCRequest();
  6748  0021CC  ECDE  F00C         	call	_USBCheckCDCRequest	;wreg free
  6749                           
  6750                           ;main_cdc.c: 135: }
  6751                           
  6752                           ;main_cdc.c: 134: break;
  6753                           
  6754                           ;main_cdc.c: 133: default:
  6755                           
  6756                           ;main_cdc.c: 132: break;
  6757                           
  6758                           ;main_cdc.c: 123: case EVENT_TRANSFER_TERMINATED:
  6759                           
  6760                           ;main_cdc.c: 122: break;
  6761                           
  6762                           ;main_cdc.c: 121: case EVENT_BUS_ERROR:
  6763                           
  6764                           ;main_cdc.c: 120: break;
  6765  0021D0  0012               	return	
  6766  0021D2                     i2l2902:
  6767  0021D2  C03A  F040         	movff	USER_USB_CALLBACK_EVENT_HANDLER@event,??_USER_USB_CALLBACK_EVENT_HANDLER
  6768  0021D6  C03B  F041         	movff	USER_USB_CALLBACK_EVENT_HANDLER@event+1,??_USER_USB_CALLBACK_EVENT_HANDLER+1
  6769                           
  6770                           ; Switch on 2 bytes has been partitioned into a top level switch of size 1, and 2 sub-sw
      +                          itches
  6771                           ; Switch size 1, requested type "space"
  6772                           ; Number of cases is 2, Range of values is 0 to 127
  6773                           ; switch strategies available:
  6774                           ; Name         Instructions Cycles
  6775                           ; simple_byte            7     4 (average)
  6776                           ;	Chosen strategy is simple_byte
  6777  0021DA  5041               	movf	??_USER_USB_CALLBACK_EVENT_HANDLER+1,w,c
  6778  0021DC  0A00               	xorlw	0	; case 0
  6779  0021DE  B4D8               	btfsc	status,2,c
  6780  0021E0  D004               	goto	i2l4464
  6781  0021E2  0A7F               	xorlw	127	; case 127
  6782  0021E4  A4D8               	btfss	status,2,c
  6783  0021E6  0012               	return	
  6784  0021E8  D018               	goto	i2l4466
  6785  0021EA                     i2l4464:
  6786                           
  6787                           ; Switch size 1, requested type "space"
  6788                           ; Number of cases is 8, Range of values is 1 to 117
  6789                           ; switch strategies available:
  6790                           ; Name         Instructions Cycles
  6791                           ; simple_byte           25    13 (average)
  6792                           ;	Chosen strategy is simple_byte
  6793  0021EA  5040               	movf	??_USER_USB_CALLBACK_EVENT_HANDLER,w,c
  6794  0021EC  0A01               	xorlw	1	; case 1
  6795  0021EE  B4D8               	btfsc	status,2,c
  6796  0021F0  D7EA               	goto	i2l2896
  6797  0021F2  0A03               	xorlw	3	; case 2
  6798  0021F4  B4D8               	btfsc	status,2,c
  6799  0021F6  0012               	return	
  6800  0021F8  0A01               	xorlw	1	; case 3
  6801  0021FA  B4D8               	btfsc	status,2,c
  6802  0021FC  D7E7               	goto	i2l2898
  6803  0021FE  0A06               	xorlw	6	; case 5
  6804  002200  B4D8               	btfsc	status,2,c
  6805  002202  0012               	return	
  6806  002204  0A77               	xorlw	119	; case 114
  6807  002206  B4D8               	btfsc	status,2,c
  6808  002208  0012               	return	
  6809  00220A  0A01               	xorlw	1	; case 115
  6810  00220C  B4D8               	btfsc	status,2,c
  6811  00220E  0012               	return	
  6812  002210  0A07               	xorlw	7	; case 116
  6813  002212  B4D8               	btfsc	status,2,c
  6814  002214  0012               	return	
  6815  002216  0A01               	xorlw	1	; case 117
  6816  002218  0012               	return	
  6817  00221A                     i2l4466:
  6818                           
  6819                           ; Switch size 1, requested type "space"
  6820                           ; Number of cases is 1, Range of values is 255 to 255
  6821                           ; switch strategies available:
  6822                           ; Name         Instructions Cycles
  6823                           ; simple_byte            4     3 (average)
  6824                           ;	Chosen strategy is simple_byte
  6825  00221A  5040               	movf	??_USER_USB_CALLBACK_EVENT_HANDLER,w,c
  6826  00221C  0AFF               	xorlw	255	; case 255
  6827  00221E  0012               	return	
  6828  002220                     __end_of_USER_USB_CALLBACK_EVENT_HANDLER:
  6829                           	opt stack 0
  6830                           pclatu	equ	0xFFB
  6831                           pclath	equ	0xFFA
  6832                           tblptru	equ	0xFF8
  6833                           tblptrh	equ	0xFF7
  6834                           tblptrl	equ	0xFF6
  6835                           tablat	equ	0xFF5
  6836                           prodh	equ	0xFF4
  6837                           prodl	equ	0xFF3
  6838                           intcon	equ	0xFF2
  6839                           postinc0	equ	0xFEE
  6840                           fsr0h	equ	0xFEA
  6841                           fsr0l	equ	0xFE9
  6842                           wreg	equ	0xFE8
  6843                           indf1	equ	0xFE7
  6844                           fsr1h	equ	0xFE2
  6845                           fsr1l	equ	0xFE1
  6846                           bsr	equ	0xFE0
  6847                           indf2	equ	0xFDF
  6848                           postinc2	equ	0xFDE
  6849                           postdec2	equ	0xFDD
  6850                           plusw2	equ	0xFDB
  6851                           fsr2h	equ	0xFDA
  6852                           fsr2l	equ	0xFD9
  6853                           status	equ	0xFD8
  6854                           
  6855 ;; *************** function _USBCheckCDCRequest *****************
  6856 ;; Defined at:
  6857 ;;		line 147 in file "../mla/v2017_03_06/framework/usb/src/usb_device_cdc.c"
  6858 ;; Parameters:    Size  Location     Type
  6859 ;;		None
  6860 ;; Auto vars:     Size  Location     Type
  6861 ;;		None
  6862 ;; Return value:  Size  Location     Type
  6863 ;;                  1    wreg      void 
  6864 ;; Registers used:
  6865 ;;		wreg, status,2, status,0
  6866 ;; Tracked objects:
  6867 ;;		On entry : 0/0
  6868 ;;		On exit  : 0/0
  6869 ;;		Unchanged: 0/0
  6870 ;; Data sizes:     COMRAM   BANK0   BANK1   BANK2   BANK3   BANK4   BANK5   BANK6   BANK7
  6871 ;;      Params:         0       0       0       0       0       0       0       0       0
  6872 ;;      Locals:         0       0       0       0       0       0       0       0       0
  6873 ;;      Temps:          0       0       0       0       0       0       0       0       0
  6874 ;;      Totals:         0       0       0       0       0       0       0       0       0
  6875 ;;Total ram usage:        0 bytes
  6876 ;; Hardware stack levels used:    1
  6877 ;; This function calls:
  6878 ;;		Nothing
  6879 ;; This function is called by:
  6880 ;;		_USER_USB_CALLBACK_EVENT_HANDLER
  6881 ;; This function uses a non-reentrant model
  6882 ;;
  6883                           
  6884                           	psect	text33
  6885  0019BC                     __ptext33:
  6886                           	opt stack 0
  6887  0019BC                     _USBCheckCDCRequest:
  6888                           	opt stack 22
  6889                           
  6890                           ;usb_device_cdc.c: 152: if(SetupPkt.Recipient != (0x01)) return;
  6891                           
  6892                           ;incstack = 0
  6893  0019BC  0104               	movlb	4	; () banked
  6894  0019BE  5130               	movf	48,w,b	;volatile
  6895  0019C0  0B1F               	andlw	31
  6896  0019C2  06E8               	decf	wreg,f,c
  6897  0019C4  A4D8               	btfss	status,2,c
  6898  0019C6  0012               	return	
  6899                           
  6900                           ; BSR set to: 4
  6901                           ;usb_device_cdc.c: 157: if(SetupPkt.RequestType != (0x20>>5)) return;
  6902                           
  6903                           ; BSR set to: 4
  6904                           
  6905                           ; BSR set to: 4
  6906  0019C8  0104               	movlb	4	; () banked
  6907  0019CA  3930               	swapf	48,w,b	;volatile
  6908  0019CC  32E8               	rrcf	wreg,f,c
  6909  0019CE  0B03               	andlw	3
  6910  0019D0  06E8               	decf	wreg,f,c
  6911  0019D2  A4D8               	btfss	status,2,c
  6912  0019D4  0012               	return	
  6913                           
  6914                           ; BSR set to: 4
  6915                           ;usb_device_cdc.c: 163: if((SetupPkt.bIntfID != 0x0)&&
  6916                           ;usb_device_cdc.c: 164: (SetupPkt.bIntfID != 0x01)) return;
  6917                           
  6918                           ; BSR set to: 4
  6919                           
  6920                           ; BSR set to: 4
  6921  0019D6  0104               	movlb	4	; () banked
  6922  0019D8  5134               	movf	52,w,b	;volatile
  6923  0019DA  B4D8               	btfsc	status,2,c
  6924  0019DC  D045               	goto	i2l2892
  6925                           
  6926                           ; BSR set to: 4
  6927  0019DE  0104               	movlb	4	; () banked
  6928  0019E0  0534               	decf	52,w,b	;volatile
  6929  0019E2  A4D8               	btfss	status,2,c
  6930  0019E4  0012               	return	
  6931  0019E6  D040               	goto	i2l2892
  6932  0019E8                     i2l2868:
  6933                           
  6934                           ; BSR set to: 4
  6935                           ;usb_device_cdc.c: 171: inPipes[0].pSrc.bRam = (uint8_t*)&dummy_encapsulated_cmd_respons
      +                          e;
  6936  0019E8  0ED3               	movlw	low _dummy_encapsulated_cmd_response
  6937  0019EA  0100               	movlb	0	; () banked
  6938  0019EC  6F68               	movwf	_inPipes& (0+255),b	;volatile
  6939  0019EE  0E00               	movlw	high _dummy_encapsulated_cmd_response
  6940  0019F0  0100               	movlb	0	; () banked
  6941  0019F2  6F69               	movwf	(_inPipes+1)& (0+255),b	;volatile
  6942                           
  6943                           ; BSR set to: 0
  6944                           ;usb_device_cdc.c: 172: inPipes[0].wCount.Val = 0x08;
  6945  0019F4  0E00               	movlw	0
  6946  0019F6  0100               	movlb	0	; () banked
  6947  0019F8  6F6D               	movwf	(_inPipes+5)& (0+255),b	;volatile
  6948  0019FA  0E08               	movlw	8
  6949  0019FC  6F6C               	movwf	(_inPipes+4)& (0+255),b	;volatile
  6950                           
  6951                           ; BSR set to: 0
  6952                           ;usb_device_cdc.c: 173: inPipes[0].info.bits.ctrl_trf_mem = 0x01;
  6953  0019FE  0100               	movlb	0	; () banked
  6954  001A00  816B               	bsf	(_inPipes+3)& (0+255),0,b	;volatile
  6955                           
  6956                           ; BSR set to: 0
  6957                           ;usb_device_cdc.c: 174: inPipes[0].info.bits.busy = 1;
  6958  001A02  0100               	movlb	0	; () banked
  6959  001A04  8F6B               	bsf	(_inPipes+3)& (0+255),7,b	;volatile
  6960                           
  6961                           ;usb_device_cdc.c: 175: break;
  6962  001A06  0012               	return	
  6963  001A08                     i2l2876:
  6964                           
  6965                           ;usb_device_cdc.c: 178: inPipes[0].pSrc.bRam = (uint8_t*)&dummy_encapsulated_cmd_respons
      +                          e;
  6966  001A08  0ED3               	movlw	low _dummy_encapsulated_cmd_response
  6967  001A0A  0100               	movlb	0	; () banked
  6968  001A0C  6F68               	movwf	_inPipes& (0+255),b	;volatile
  6969  001A0E  0E00               	movlw	high _dummy_encapsulated_cmd_response
  6970  001A10  0100               	movlb	0	; () banked
  6971  001A12  6F69               	movwf	(_inPipes+1)& (0+255),b	;volatile
  6972                           
  6973                           ; BSR set to: 0
  6974                           ;usb_device_cdc.c: 179: inPipes[0].info.bits.busy = 1;
  6975  001A14  0100               	movlb	0	; () banked
  6976  001A16  8F6B               	bsf	(_inPipes+3)& (0+255),7,b	;volatile
  6977                           
  6978                           ;usb_device_cdc.c: 180: break;
  6979  001A18  0012               	return	
  6980  001A1A                     i2l549:
  6981                           
  6982                           ; BSR set to: 4
  6983                           ;usb_device_cdc.c: 185: outPipes[0].wCount.Val = SetupPkt.wLength;
  6984  001A1A  C436 F064          	movff	1078,_outPipes+4	;volatile
  6985  001A1E  C437 F065          	movff	1079,_outPipes+5	;volatile
  6986                           
  6987                           ; BSR set to: 4
  6988                           ;usb_device_cdc.c: 186: outPipes[0].pDst.bRam = (uint8_t*)&cdc_notice.SetLineCoding._byt
      +                          e[0];
  6989  001A22  0EC9               	movlw	low _cdc_notice
  6990  001A24  0100               	movlb	0	; () banked
  6991  001A26  6F60               	movwf	_outPipes& (0+255),b	;volatile
  6992  001A28  0E00               	movlw	high _cdc_notice
  6993  001A2A  0100               	movlb	0	; () banked
  6994  001A2C  6F61               	movwf	(_outPipes+1)& (0+255),b	;volatile
  6995                           
  6996                           ;usb_device_cdc.c: 187: outPipes[0].pFunc = &USART_mySetLineCodingHandler;
  6997  001A2E  0E7C               	movlw	low _USART_mySetLineCodingHandler
  6998  001A30  0100               	movlb	0	; () banked
  6999  001A32  6F66               	movwf	(_outPipes+6)& (0+255),b	;volatile
  7000  001A34  0E22               	movlw	high _USART_mySetLineCodingHandler
  7001  001A36  0100               	movlb	0	; () banked
  7002  001A38  6F67               	movwf	(_outPipes+7)& (0+255),b	;volatile
  7003                           
  7004                           ; BSR set to: 0
  7005                           ;usb_device_cdc.c: 188: outPipes[0].info.bits.busy = 1;
  7006  001A3A  0100               	movlb	0	; () banked
  7007  001A3C  8F63               	bsf	(_outPipes+3)& (0+255),7,b	;volatile
  7008                           
  7009                           ;usb_device_cdc.c: 189: break;
  7010  001A3E  0012               	return	
  7011  001A40                     i2l2884:
  7012                           
  7013                           ;usb_device_cdc.c: 192: { inPipes[0].pSrc.bRam = (uint8_t*)&line_coding; inPipes[0].wCou
      +                          nt.Val = 0x07; inPipes[0].info.Val = 0x40 | 0x80 | 0x01; };
  7014  001A40  0EDB               	movlw	low _line_coding
  7015  001A42  0100               	movlb	0	; () banked
  7016  001A44  6F68               	movwf	_inPipes& (0+255),b	;volatile
  7017  001A46  0E00               	movlw	high _line_coding
  7018  001A48  0100               	movlb	0	; () banked
  7019  001A4A  6F69               	movwf	(_inPipes+1)& (0+255),b	;volatile
  7020                           
  7021                           ; BSR set to: 0
  7022  001A4C  0E00               	movlw	0
  7023  001A4E  0100               	movlb	0	; () banked
  7024  001A50  6F6D               	movwf	(_inPipes+5)& (0+255),b	;volatile
  7025  001A52  0E07               	movlw	7
  7026  001A54  6F6C               	movwf	(_inPipes+4)& (0+255),b	;volatile
  7027                           
  7028                           ; BSR set to: 0
  7029  001A56  0EC1               	movlw	193
  7030  001A58  0100               	movlb	0	; () banked
  7031  001A5A  6F6B               	movwf	(_inPipes+3)& (0+255),b	;volatile
  7032                           
  7033                           ;usb_device_cdc.c: 196: break;
  7034  001A5C  0012               	return	
  7035  001A5E                     i2l551:
  7036                           
  7037                           ; BSR set to: 4
  7038                           ;usb_device_cdc.c: 199: control_signal_bitmap._byte = (uint8_t)SetupPkt.wValue;
  7039  001A5E  C432 F017          	movff	1074,_control_signal_bitmap	;volatile
  7040                           
  7041                           ;usb_device_cdc.c: 231: inPipes[0].info.bits.busy = 1;
  7042  001A62  0100               	movlb	0	; () banked
  7043  001A64  8F6B               	bsf	(_inPipes+3)& (0+255),7,b	;volatile
  7044                           
  7045                           ; BSR set to: 0
  7046                           ;usb_device_cdc.c: 258: }
  7047                           
  7048                           ; BSR set to: 0
  7049                           ;usb_device_cdc.c: 257: break;
  7050                           
  7051                           ;usb_device_cdc.c: 256: default:
  7052                           
  7053                           ;usb_device_cdc.c: 232: break;
  7054  001A66  0012               	return	
  7055  001A68                     i2l2892:
  7056  001A68  0104               	movlb	4	; () banked
  7057  001A6A  5131               	movf	49,w,b	;volatile
  7058                           
  7059                           ; Switch size 1, requested type "space"
  7060                           ; Number of cases is 5, Range of values is 0 to 34
  7061                           ; switch strategies available:
  7062                           ; Name         Instructions Cycles
  7063                           ; simple_byte           16     9 (average)
  7064                           ;	Chosen strategy is simple_byte
  7065  001A6C  0A00               	xorlw	0	; case 0
  7066  001A6E  B4D8               	btfsc	status,2,c
  7067  001A70  D7BB               	goto	i2l2868
  7068  001A72  0A01               	xorlw	1	; case 1
  7069  001A74  B4D8               	btfsc	status,2,c
  7070  001A76  D7C8               	goto	i2l2876
  7071  001A78  0A21               	xorlw	33	; case 32
  7072  001A7A  B4D8               	btfsc	status,2,c
  7073  001A7C  D7CE               	goto	i2l549
  7074  001A7E  0A01               	xorlw	1	; case 33
  7075  001A80  B4D8               	btfsc	status,2,c
  7076  001A82  D7DE               	goto	i2l2884
  7077  001A84  0A03               	xorlw	3	; case 34
  7078  001A86  A4D8               	btfss	status,2,c
  7079  001A88  0012               	return	
  7080  001A8A  D7E9               	goto	i2l551
  7081  001A8C                     __end_of_USBCheckCDCRequest:
  7082                           	opt stack 0
  7083                           pclatu	equ	0xFFB
  7084                           pclath	equ	0xFFA
  7085                           tblptru	equ	0xFF8
  7086                           tblptrh	equ	0xFF7
  7087                           tblptrl	equ	0xFF6
  7088                           tablat	equ	0xFF5
  7089                           prodh	equ	0xFF4
  7090                           prodl	equ	0xFF3
  7091                           intcon	equ	0xFF2
  7092                           postinc0	equ	0xFEE
  7093                           fsr0h	equ	0xFEA
  7094                           fsr0l	equ	0xFE9
  7095                           wreg	equ	0xFE8
  7096                           indf1	equ	0xFE7
  7097                           fsr1h	equ	0xFE2
  7098                           fsr1l	equ	0xFE1
  7099                           bsr	equ	0xFE0
  7100                           indf2	equ	0xFDF
  7101                           postinc2	equ	0xFDE
  7102                           postdec2	equ	0xFDD
  7103                           plusw2	equ	0xFDB
  7104                           fsr2h	equ	0xFDA
  7105                           fsr2l	equ	0xFD9
  7106                           status	equ	0xFD8
  7107                           
  7108 ;; *************** function _APP_DeviceCDCEmulatorInitialize *****************
  7109 ;; Defined at:
  7110 ;;		line 60 in file "../mla/v2017_03_06/framework/usb/src/app_device_cdc_to_uart.c"
  7111 ;; Parameters:    Size  Location     Type
  7112 ;;		None
  7113 ;; Auto vars:     Size  Location     Type
  7114 ;;  i               1   12[COMRAM] unsigned char 
  7115 ;; Return value:  Size  Location     Type
  7116 ;;                  1    wreg      void 
  7117 ;; Registers used:
  7118 ;;		wreg, fsr2l, fsr2h, status,2, status,0, prodl, prodh, cstack
  7119 ;; Tracked objects:
  7120 ;;		On entry : 0/0
  7121 ;;		On exit  : 0/0
  7122 ;;		Unchanged: 0/0
  7123 ;; Data sizes:     COMRAM   BANK0   BANK1   BANK2   BANK3   BANK4   BANK5   BANK6   BANK7
  7124 ;;      Params:         0       0       0       0       0       0       0       0       0
  7125 ;;      Locals:         1       0       0       0       0       0       0       0       0
  7126 ;;      Temps:          0       0       0       0       0       0       0       0       0
  7127 ;;      Totals:         1       0       0       0       0       0       0       0       0
  7128 ;;Total ram usage:        1 bytes
  7129 ;; Hardware stack levels used:    1
  7130 ;; Hardware stack levels required when called:    3
  7131 ;; This function calls:
  7132 ;;		_CDCInitEP
  7133 ;;		_USART_Initialize
  7134 ;; This function is called by:
  7135 ;;		_USER_USB_CALLBACK_EVENT_HANDLER
  7136 ;; This function uses a non-reentrant model
  7137 ;;
  7138                           
  7139                           	psect	text34
  7140  00215E                     __ptext34:
  7141                           	opt stack 0
  7142  00215E                     _APP_DeviceCDCEmulatorInitialize:
  7143                           	opt stack 19
  7144                           
  7145                           ;app_device_cdc_to_uart.c: 62: CDCInitEP();
  7146                           
  7147                           ;incstack = 0
  7148  00215E  EC7A  F010         	call	_CDCInitEP	;wreg free
  7149                           
  7150                           ;app_device_cdc_to_uart.c: 65: line_coding.bCharFormat = 0;
  7151  002162  0E00               	movlw	0
  7152  002164  0100               	movlb	0	; () banked
  7153  002166  6FDF               	movwf	(_line_coding+4)& (0+255),b
  7154                           
  7155                           ; BSR set to: 0
  7156                           ;app_device_cdc_to_uart.c: 66: line_coding.bDataBits = 8;
  7157  002168  0E08               	movlw	8
  7158  00216A  0100               	movlb	0	; () banked
  7159  00216C  6FE1               	movwf	(_line_coding+6)& (0+255),b
  7160                           
  7161                           ; BSR set to: 0
  7162                           ;app_device_cdc_to_uart.c: 67: line_coding.bParityType = 0;
  7163  00216E  0E00               	movlw	0
  7164  002170  0100               	movlb	0	; () banked
  7165  002172  6FE0               	movwf	(_line_coding+5)& (0+255),b
  7166                           
  7167                           ; BSR set to: 0
  7168                           ;app_device_cdc_to_uart.c: 68: line_coding.dwDTERate = 9600;
  7169  002174  0E80               	movlw	128
  7170  002176  0100               	movlb	0	; () banked
  7171  002178  6FDB               	movwf	_line_coding& (0+255),b
  7172  00217A  0E25               	movlw	37
  7173  00217C  6FDC               	movwf	(_line_coding+1)& (0+255),b
  7174  00217E  0E00               	movlw	0
  7175  002180  6FDD               	movwf	(_line_coding+2)& (0+255),b
  7176  002182  0E00               	movlw	0
  7177  002184  6FDE               	movwf	(_line_coding+3)& (0+255),b
  7178                           
  7179                           ; BSR set to: 0
  7180                           ;app_device_cdc_to_uart.c: 70: unsigned char i;
  7181                           ;app_device_cdc_to_uart.c: 71: USART_Initialize();
  7182  002186  ECA7  F012         	call	_USART_Initialize	;wreg free
  7183                           
  7184                           ;app_device_cdc_to_uart.c: 74: for (i=0; i<sizeof(USB_Out_Buffer); i++)
  7185  00218A  0E00               	movlw	0
  7186  00218C  6E39               	movwf	APP_DeviceCDCEmulatorInitialize@i,c
  7187  00218E                     i2l2840:
  7188  00218E  0E3F               	movlw	63
  7189  002190  6439               	cpfsgt	APP_DeviceCDCEmulatorInitialize@i,c
  7190  002192  D001               	goto	i2l2844
  7191  002194  D00C               	goto	i2l2850
  7192  002196                     i2l2844:
  7193                           
  7194                           ;app_device_cdc_to_uart.c: 75: {
  7195                           ;app_device_cdc_to_uart.c: 76: USB_Out_Buffer[i] = 0;
  7196  002196  5039               	movf	APP_DeviceCDCEmulatorInitialize@i,w,c
  7197  002198  0D01               	mullw	1
  7198  00219A  0E89               	movlw	low _USB_Out_Buffer
  7199  00219C  24F3               	addwf	prodl,w,c
  7200  00219E  6ED9               	movwf	fsr2l,c
  7201  0021A0  0E00               	movlw	high _USB_Out_Buffer
  7202  0021A2  20F4               	addwfc	prodh,w,c
  7203  0021A4  6EDA               	movwf	fsr2h,c
  7204  0021A6  0E00               	movlw	0
  7205  0021A8  6EDF               	movwf	indf2,c
  7206  0021AA  2A39               	incf	APP_DeviceCDCEmulatorInitialize@i,f,c
  7207  0021AC  D7F0               	goto	i2l2840
  7208  0021AE                     i2l2850:
  7209                           
  7210                           ;app_device_cdc_to_uart.c: 77: }
  7211                           ;app_device_cdc_to_uart.c: 79: NextUSBOut = 0;
  7212  0021AE  0E00               	movlw	0
  7213  0021B0  6E16               	movwf	_NextUSBOut,c
  7214                           
  7215                           ;app_device_cdc_to_uart.c: 80: LastRS232Out = 0;
  7216  0021B2  0E00               	movlw	0
  7217  0021B4  6E15               	movwf	_LastRS232Out,c
  7218                           
  7219                           ;app_device_cdc_to_uart.c: 81: lastTransmission = 0;
  7220  0021B6  0E00               	movlw	0
  7221  0021B8  0100               	movlb	0	; () banked
  7222  0021BA  6F84               	movwf	_lastTransmission& (0+255),b
  7223  0021BC  0E00               	movlw	0
  7224  0021BE  0100               	movlb	0	; () banked
  7225  0021C0  6F85               	movwf	(_lastTransmission+1)& (0+255),b
  7226                           
  7227                           ; BSR set to: 0
  7228  0021C2  0012               	return		;funcret
  7229  0021C4                     __end_of_APP_DeviceCDCEmulatorInitialize:
  7230                           	opt stack 0
  7231                           pclatu	equ	0xFFB
  7232                           pclath	equ	0xFFA
  7233                           tblptru	equ	0xFF8
  7234                           tblptrh	equ	0xFF7
  7235                           tblptrl	equ	0xFF6
  7236                           tablat	equ	0xFF5
  7237                           prodh	equ	0xFF4
  7238                           prodl	equ	0xFF3
  7239                           intcon	equ	0xFF2
  7240                           postinc0	equ	0xFEE
  7241                           fsr0h	equ	0xFEA
  7242                           fsr0l	equ	0xFE9
  7243                           wreg	equ	0xFE8
  7244                           indf1	equ	0xFE7
  7245                           fsr1h	equ	0xFE2
  7246                           fsr1l	equ	0xFE1
  7247                           bsr	equ	0xFE0
  7248                           indf2	equ	0xFDF
  7249                           postinc2	equ	0xFDE
  7250                           postdec2	equ	0xFDD
  7251                           plusw2	equ	0xFDB
  7252                           fsr2h	equ	0xFDA
  7253                           fsr2l	equ	0xFD9
  7254                           status	equ	0xFD8
  7255                           
  7256 ;; *************** function _CDCInitEP *****************
  7257 ;; Defined at:
  7258 ;;		line 294 in file "../mla/v2017_03_06/framework/usb/src/usb_device_cdc.c"
  7259 ;; Parameters:    Size  Location     Type
  7260 ;;		None
  7261 ;; Auto vars:     Size  Location     Type
  7262 ;;		None
  7263 ;; Return value:  Size  Location     Type
  7264 ;;                  1    wreg      void 
  7265 ;; Registers used:
  7266 ;;		wreg, fsr2l, fsr2h, status,2, status,0, prodl, prodh, cstack
  7267 ;; Tracked objects:
  7268 ;;		On entry : 0/0
  7269 ;;		On exit  : 0/0
  7270 ;;		Unchanged: 0/0
  7271 ;; Data sizes:     COMRAM   BANK0   BANK1   BANK2   BANK3   BANK4   BANK5   BANK6   BANK7
  7272 ;;      Params:         0       0       0       0       0       0       0       0       0
  7273 ;;      Locals:         0       0       0       0       0       0       0       0       0
  7274 ;;      Temps:          0       0       0       0       0       0       0       0       0
  7275 ;;      Totals:         0       0       0       0       0       0       0       0       0
  7276 ;;Total ram usage:        0 bytes
  7277 ;; Hardware stack levels used:    1
  7278 ;; Hardware stack levels required when called:    2
  7279 ;; This function calls:
  7280 ;;		_USBEnableEndpoint
  7281 ;;		i2_USBTransferOnePacket
  7282 ;; This function is called by:
  7283 ;;		_APP_DeviceCDCEmulatorInitialize
  7284 ;; This function uses a non-reentrant model
  7285 ;;
  7286                           
  7287                           	psect	text35
  7288  0020F4                     __ptext35:
  7289                           	opt stack 0
  7290  0020F4                     _CDCInitEP:
  7291                           	opt stack 19
  7292                           
  7293                           ;usb_device_cdc.c: 297: line_coding.dwDTERate = 9600;
  7294                           
  7295                           ; BSR set to: 0
  7296                           ;incstack = 0
  7297  0020F4  0E80               	movlw	128
  7298  0020F6  0100               	movlb	0	; () banked
  7299  0020F8  6FDB               	movwf	_line_coding& (0+255),b
  7300  0020FA  0E25               	movlw	37
  7301  0020FC  6FDC               	movwf	(_line_coding+1)& (0+255),b
  7302  0020FE  0E00               	movlw	0
  7303  002100  6FDD               	movwf	(_line_coding+2)& (0+255),b
  7304  002102  0E00               	movlw	0
  7305  002104  6FDE               	movwf	(_line_coding+3)& (0+255),b
  7306                           
  7307                           ;usb_device_cdc.c: 298: line_coding.bCharFormat = 0x00;
  7308  002106  0E00               	movlw	0
  7309  002108  0100               	movlb	0	; () banked
  7310  00210A  6FDF               	movwf	(_line_coding+4)& (0+255),b
  7311                           
  7312                           ;usb_device_cdc.c: 299: line_coding.bParityType = 0x00;
  7313  00210C  0E00               	movlw	0
  7314  00210E  0100               	movlb	0	; () banked
  7315  002110  6FE0               	movwf	(_line_coding+5)& (0+255),b
  7316                           
  7317                           ;usb_device_cdc.c: 300: line_coding.bDataBits = 0x08;
  7318  002112  0E08               	movlw	8
  7319  002114  0100               	movlb	0	; () banked
  7320  002116  6FE1               	movwf	(_line_coding+6)& (0+255),b
  7321                           
  7322                           ;usb_device_cdc.c: 302: cdc_rx_len = 0;
  7323  002118  0E00               	movlw	0
  7324  00211A  0100               	movlb	0	; () banked
  7325  00211C  6F88               	movwf	_cdc_rx_len& (0+255),b
  7326                           
  7327                           ; BSR set to: 0
  7328                           ;usb_device_cdc.c: 315: USBEnableEndpoint(1,0x02|0x10|0x08);
  7329  00211E  0E1A               	movlw	26
  7330  002120  6E35               	movwf	USBEnableEndpoint@options,c
  7331  002122  0E01               	movlw	1
  7332  002124  ECCE  F011         	call	_USBEnableEndpoint
  7333                           
  7334                           ;usb_device_cdc.c: 316: USBEnableEndpoint(2,0x02|0x04|0x10|0x08);
  7335  002128  0E1E               	movlw	30
  7336  00212A  6E35               	movwf	USBEnableEndpoint@options,c
  7337  00212C  0E02               	movlw	2
  7338  00212E  ECCE  F011         	call	_USBEnableEndpoint
  7339                           
  7340                           ;usb_device_cdc.c: 318: CDCDataOutHandle = USBTransferOnePacket(2,0,(uint8_t*)&cdc_data_
      +                          rx,sizeof(cdc_data_rx));
  7341  002132  0E00               	movlw	0
  7342  002134  6E2D               	movwf	i2USBTransferOnePacket@dir,c
  7343  002136  0E40               	movlw	64
  7344  002138  6E2E               	movwf	i2USBTransferOnePacket@data,c
  7345  00213A  0E05               	movlw	5
  7346  00213C  6E2F               	movwf	i2USBTransferOnePacket@data+1,c
  7347  00213E  0E40               	movlw	64
  7348  002140  6E30               	movwf	i2USBTransferOnePacket@len,c
  7349  002142  0E02               	movlw	2
  7350  002144  EC14  F00A         	call	i2_USBTransferOnePacket
  7351  002148  C02D  F086         	movff	?i2_USBTransferOnePacket,_CDCDataOutHandle
  7352  00214C  C02E  F087         	movff	?i2_USBTransferOnePacket+1,_CDCDataOutHandle+1
  7353                           
  7354                           ;usb_device_cdc.c: 319: CDCDataInHandle = (0);
  7355  002150  0E00               	movlw	0
  7356  002152  6E0B               	movwf	_CDCDataInHandle,c
  7357  002154  0E00               	movlw	0
  7358  002156  6E0C               	movwf	_CDCDataInHandle+1,c
  7359                           
  7360                           ;usb_device_cdc.c: 321: cdc_trf_state = 0;
  7361  002158  0E00               	movlw	0
  7362  00215A  6E1A               	movwf	_cdc_trf_state,c
  7363  00215C  0012               	return		;funcret
  7364  00215E                     __end_of_CDCInitEP:
  7365                           	opt stack 0
  7366                           pclatu	equ	0xFFB
  7367                           pclath	equ	0xFFA
  7368                           tblptru	equ	0xFF8
  7369                           tblptrh	equ	0xFF7
  7370                           tblptrl	equ	0xFF6
  7371                           tablat	equ	0xFF5
  7372                           prodh	equ	0xFF4
  7373                           prodl	equ	0xFF3
  7374                           intcon	equ	0xFF2
  7375                           postinc0	equ	0xFEE
  7376                           fsr0h	equ	0xFEA
  7377                           fsr0l	equ	0xFE9
  7378                           wreg	equ	0xFE8
  7379                           indf1	equ	0xFE7
  7380                           fsr1h	equ	0xFE2
  7381                           fsr1l	equ	0xFE1
  7382                           bsr	equ	0xFE0
  7383                           indf2	equ	0xFDF
  7384                           postinc2	equ	0xFDE
  7385                           postdec2	equ	0xFDD
  7386                           plusw2	equ	0xFDB
  7387                           fsr2h	equ	0xFDA
  7388                           fsr2l	equ	0xFD9
  7389                           status	equ	0xFD8
  7390                           
  7391 ;; *************** function i2_USBTransferOnePacket *****************
  7392 ;; Defined at:
  7393 ;;		line 995 in file "../mla/v2017_03_06/framework/usb/src/usb_device.c"
  7394 ;; Parameters:    Size  Location     Type
  7395 ;;  ep              1    wreg     unsigned char 
  7396 ;;  dir             1    0[COMRAM] unsigned char 
  7397 ;;  data            2    1[COMRAM] PTR unsigned char 
  7398 ;;		 -> cdc_data_tx(64), cdc_data_rx(64), NULL(0), 
  7399 ;;  len             1    3[COMRAM] unsigned char 
  7400 ;; Auto vars:     Size  Location     Type
  7401 ;;  ep              1    8[COMRAM] unsigned char 
  7402 ;;  USBTransferO    2    9[COMRAM] PTR volatile struct __BD
  7403 ;;		 -> RAM(2047), NULL(0), BDT(48), 
  7404 ;; Return value:  Size  Location     Type
  7405 ;;                  2    0[COMRAM] PTR void 
  7406 ;; Registers used:
  7407 ;;		wreg, fsr2l, fsr2h, status,2, status,0, prodl, prodh
  7408 ;; Tracked objects:
  7409 ;;		On entry : 0/0
  7410 ;;		On exit  : 0/0
  7411 ;;		Unchanged: 0/0
  7412 ;; Data sizes:     COMRAM   BANK0   BANK1   BANK2   BANK3   BANK4   BANK5   BANK6   BANK7
  7413 ;;      Params:         4       0       0       0       0       0       0       0       0
  7414 ;;      Locals:         3       0       0       0       0       0       0       0       0
  7415 ;;      Temps:          4       0       0       0       0       0       0       0       0
  7416 ;;      Totals:        11       0       0       0       0       0       0       0       0
  7417 ;;Total ram usage:       11 bytes
  7418 ;; Hardware stack levels used:    1
  7419 ;; This function calls:
  7420 ;;		Nothing
  7421 ;; This function is called by:
  7422 ;;		_CDCInitEP
  7423 ;; This function uses a non-reentrant model
  7424 ;;
  7425                           
  7426                           	psect	text36
  7427  001428                     __ptext36:
  7428                           	opt stack 0
  7429  001428                     i2_USBTransferOnePacket:
  7430                           	opt stack 20
  7431                           
  7432                           ;incstack = 0
  7433                           ;i2USBTransferOnePacket@ep stored from wreg
  7434  001428  6E35               	movwf	i2USBTransferOnePacket@ep,c
  7435                           
  7436                           ;usb_device.c: 997: volatile BDT_ENTRY* handle;
  7437                           ;usb_device.c: 1000: if(dir != 0)
  7438  00142A  502D               	movf	i2USBTransferOnePacket@dir,w,c
  7439  00142C  B4D8               	btfsc	status,2,c
  7440  00142E  D007               	goto	i2l2786
  7441                           
  7442                           ;usb_device.c: 1001: {
  7443                           ;usb_device.c: 1003: handle = pBDTEntryIn[ep];
  7444  001430  5035               	movf	i2USBTransferOnePacket@ep,w,c
  7445  001432  0D02               	mullw	2
  7446  001434  0E6E               	movlw	low _pBDTEntryIn
  7447  001436  24F3               	addwf	prodl,w,c
  7448  001438  6ED9               	movwf	fsr2l,c
  7449  00143A  0E00               	movlw	high _pBDTEntryIn
  7450  00143C  D006               	goto	L12
  7451  00143E                     i2l2786:
  7452                           
  7453                           ;usb_device.c: 1005: else
  7454                           ;usb_device.c: 1006: {
  7455                           ;usb_device.c: 1008: handle = pBDTEntryOut[ep];
  7456  00143E  5035               	movf	i2USBTransferOnePacket@ep,w,c
  7457  001440  0D02               	mullw	2
  7458  001442  0E74               	movlw	low _pBDTEntryOut
  7459  001444  24F3               	addwf	prodl,w,c
  7460  001446  6ED9               	movwf	fsr2l,c
  7461  001448  0E00               	movlw	high _pBDTEntryOut
  7462  00144A                     L12:
  7463  00144A  20F4               	addwfc	prodh,w,c
  7464  00144C  6EDA               	movwf	fsr2h,c
  7465  00144E  CFDE F036          	movff	postinc2,i2USBTransferOnePacket@handle
  7466  001452  CFDD F037          	movff	postdec2,i2USBTransferOnePacket@handle+1
  7467                           
  7468                           ;usb_device.c: 1009: }
  7469                           ;usb_device.c: 1013: if(handle == 0)
  7470  001456  5036               	movf	i2USBTransferOnePacket@handle,w,c
  7471  001458  1037               	iorwf	i2USBTransferOnePacket@handle+1,w,c
  7472  00145A  A4D8               	btfss	status,2,c
  7473  00145C  D005               	goto	i2l2794
  7474                           
  7475                           ;usb_device.c: 1014: {
  7476                           ;usb_device.c: 1015: return 0;
  7477  00145E  0E00               	movlw	0
  7478  001460  6E2D               	movwf	?i2_USBTransferOnePacket,c
  7479  001462  0E00               	movlw	0
  7480  001464  6E2E               	movwf	?i2_USBTransferOnePacket+1,c
  7481  001466  0012               	return	
  7482  001468                     i2l2794:
  7483                           
  7484                           ;usb_device.c: 1016: }
  7485                           ;usb_device.c: 1029: handle->ADR = ((uint16_t)(data));
  7486  001468  EE20 F002          	lfsr	2,2
  7487  00146C  5036               	movf	i2USBTransferOnePacket@handle,w,c
  7488  00146E  26D9               	addwf	fsr2l,f,c
  7489  001470  5037               	movf	i2USBTransferOnePacket@handle+1,w,c
  7490  001472  22DA               	addwfc	fsr2h,f,c
  7491  001474  C02E  FFDE         	movff	i2USBTransferOnePacket@data,postinc2
  7492  001478  C02F  FFDD         	movff	i2USBTransferOnePacket@data+1,postdec2
  7493                           
  7494                           ;usb_device.c: 1030: handle->CNT = len;
  7495  00147C  EE20 F001          	lfsr	2,1
  7496  001480  5036               	movf	i2USBTransferOnePacket@handle,w,c
  7497  001482  26D9               	addwf	fsr2l,f,c
  7498  001484  5037               	movf	i2USBTransferOnePacket@handle+1,w,c
  7499  001486  22DA               	addwfc	fsr2h,f,c
  7500  001488  C030  FFDF         	movff	i2USBTransferOnePacket@len,indf2
  7501                           
  7502                           ;usb_device.c: 1031: handle->STAT.Val &= 0x40;
  7503  00148C  C036  FFD9         	movff	i2USBTransferOnePacket@handle,fsr2l
  7504  001490  C037  FFDA         	movff	i2USBTransferOnePacket@handle+1,fsr2h
  7505  001494  0E40               	movlw	64
  7506  001496  16DF               	andwf	indf2,f,c
  7507                           
  7508                           ;usb_device.c: 1032: handle->STAT.Val |= (0x08 & 0x08);
  7509  001498  C036  FFD9         	movff	i2USBTransferOnePacket@handle,fsr2l
  7510  00149C  C037  FFDA         	movff	i2USBTransferOnePacket@handle+1,fsr2h
  7511  0014A0  0E00               	movlw	0
  7512  0014A2  86DB               	bsf	plusw2,3,c
  7513                           
  7514                           ;usb_device.c: 1033: handle->STAT.Val |= 0x80;
  7515  0014A4  C036  FFD9         	movff	i2USBTransferOnePacket@handle,fsr2l
  7516  0014A8  C037  FFDA         	movff	i2USBTransferOnePacket@handle+1,fsr2h
  7517  0014AC  0E00               	movlw	0
  7518  0014AE  8EDB               	bsf	plusw2,7,c
  7519                           
  7520                           ;usb_device.c: 1036: if(dir != 0)
  7521  0014B0  502D               	movf	i2USBTransferOnePacket@dir,w,c
  7522  0014B2  B4D8               	btfsc	status,2,c
  7523  0014B4  D018               	goto	i2l2806
  7524                           
  7525                           ;usb_device.c: 1037: {
  7526                           ;usb_device.c: 1039: pBDTEntryIn[ep] = (BDT_ENTRY*)(((uintptr_t)pBDTEntryIn[ep]) ^ 0x000
      +                          4);
  7527  0014B6  5035               	movf	i2USBTransferOnePacket@ep,w,c
  7528  0014B8  0D02               	mullw	2
  7529  0014BA  0E6E               	movlw	low _pBDTEntryIn
  7530  0014BC  24F3               	addwf	prodl,w,c
  7531  0014BE  6ED9               	movwf	fsr2l,c
  7532  0014C0  0E00               	movlw	high _pBDTEntryIn
  7533  0014C2  20F4               	addwfc	prodh,w,c
  7534  0014C4  6EDA               	movwf	fsr2h,c
  7535  0014C6  CFDE F031          	movff	postinc2,??i2_USBTransferOnePacket
  7536  0014CA  CFDD F032          	movff	postdec2,??i2_USBTransferOnePacket+1
  7537  0014CE  0E04               	movlw	4
  7538  0014D0  1831               	xorwf	??i2_USBTransferOnePacket,w,c
  7539  0014D2  6E33               	movwf	(??i2_USBTransferOnePacket+2)& (0+255),c
  7540  0014D4  5032               	movf	??i2_USBTransferOnePacket+1,w,c
  7541  0014D6  6E34               	movwf	(??i2_USBTransferOnePacket+3)& (0+255),c
  7542  0014D8  5035               	movf	i2USBTransferOnePacket@ep,w,c
  7543  0014DA  0D02               	mullw	2
  7544  0014DC  0E6E               	movlw	low _pBDTEntryIn
  7545  0014DE  24F3               	addwf	prodl,w,c
  7546  0014E0  6ED9               	movwf	fsr2l,c
  7547  0014E2  0E00               	movlw	high _pBDTEntryIn
  7548  0014E4  D017               	goto	L13
  7549  0014E6                     i2l2806:
  7550                           
  7551                           ;usb_device.c: 1041: else
  7552                           ;usb_device.c: 1042: {
  7553                           ;usb_device.c: 1044: pBDTEntryOut[ep] = (BDT_ENTRY*)(((uintptr_t)pBDTEntryOut[ep]) ^ 0x0
      +                          004);
  7554  0014E6  5035               	movf	i2USBTransferOnePacket@ep,w,c
  7555  0014E8  0D02               	mullw	2
  7556  0014EA  0E74               	movlw	low _pBDTEntryOut
  7557  0014EC  24F3               	addwf	prodl,w,c
  7558  0014EE  6ED9               	movwf	fsr2l,c
  7559  0014F0  0E00               	movlw	high _pBDTEntryOut
  7560  0014F2  20F4               	addwfc	prodh,w,c
  7561  0014F4  6EDA               	movwf	fsr2h,c
  7562  0014F6  CFDE F031          	movff	postinc2,??i2_USBTransferOnePacket
  7563  0014FA  CFDD F032          	movff	postdec2,??i2_USBTransferOnePacket+1
  7564  0014FE  0E04               	movlw	4
  7565  001500  1831               	xorwf	??i2_USBTransferOnePacket,w,c
  7566  001502  6E33               	movwf	(??i2_USBTransferOnePacket+2)& (0+255),c
  7567  001504  5032               	movf	??i2_USBTransferOnePacket+1,w,c
  7568  001506  6E34               	movwf	(??i2_USBTransferOnePacket+3)& (0+255),c
  7569  001508  5035               	movf	i2USBTransferOnePacket@ep,w,c
  7570  00150A  0D02               	mullw	2
  7571  00150C  0E74               	movlw	low _pBDTEntryOut
  7572  00150E  24F3               	addwf	prodl,w,c
  7573  001510  6ED9               	movwf	fsr2l,c
  7574  001512  0E00               	movlw	high _pBDTEntryOut
  7575  001514                     L13:
  7576  001514  20F4               	addwfc	prodh,w,c
  7577  001516  6EDA               	movwf	fsr2h,c
  7578  001518  C033  FFDE         	movff	??i2_USBTransferOnePacket+2,postinc2
  7579  00151C  C034  FFDD         	movff	??i2_USBTransferOnePacket+3,postdec2
  7580                           
  7581                           ;usb_device.c: 1045: }
  7582                           ;usb_device.c: 1046: return (void*)handle;
  7583  001520  C036  F02D         	movff	i2USBTransferOnePacket@handle,?i2_USBTransferOnePacket
  7584  001524  C037  F02E         	movff	i2USBTransferOnePacket@handle+1,?i2_USBTransferOnePacket+1
  7585  001528  0012               	return	
  7586  00152A                     __end_ofi2_USBTransferOnePacket:
  7587                           	opt stack 0
  7588                           pclatu	equ	0xFFB
  7589                           pclath	equ	0xFFA
  7590                           tblptru	equ	0xFF8
  7591                           tblptrh	equ	0xFF7
  7592                           tblptrl	equ	0xFF6
  7593                           tablat	equ	0xFF5
  7594                           prodh	equ	0xFF4
  7595                           prodl	equ	0xFF3
  7596                           intcon	equ	0xFF2
  7597                           postinc0	equ	0xFEE
  7598                           fsr0h	equ	0xFEA
  7599                           fsr0l	equ	0xFE9
  7600                           wreg	equ	0xFE8
  7601                           indf1	equ	0xFE7
  7602                           fsr1h	equ	0xFE2
  7603                           fsr1l	equ	0xFE1
  7604                           bsr	equ	0xFE0
  7605                           indf2	equ	0xFDF
  7606                           postinc2	equ	0xFDE
  7607                           postdec2	equ	0xFDD
  7608                           plusw2	equ	0xFDB
  7609                           fsr2h	equ	0xFDA
  7610                           fsr2l	equ	0xFD9
  7611                           status	equ	0xFD8
  7612                           
  7613 ;; *************** function _USBEnableEndpoint *****************
  7614 ;; Defined at:
  7615 ;;		line 878 in file "../mla/v2017_03_06/framework/usb/src/usb_device.c"
  7616 ;; Parameters:    Size  Location     Type
  7617 ;;  ep              1    wreg     unsigned char 
  7618 ;;  options         1    8[COMRAM] unsigned char 
  7619 ;; Auto vars:     Size  Location     Type
  7620 ;;  ep              1   11[COMRAM] unsigned char 
  7621 ;;  p               2    9[COMRAM] PTR unsigned char 
  7622 ;;		 -> UEP0(1), 
  7623 ;; Return value:  Size  Location     Type
  7624 ;;                  1    wreg      void 
  7625 ;; Registers used:
  7626 ;;		wreg, fsr2l, fsr2h, status,2, status,0, prodl, prodh, cstack
  7627 ;; Tracked objects:
  7628 ;;		On entry : 0/0
  7629 ;;		On exit  : 0/0
  7630 ;;		Unchanged: 0/0
  7631 ;; Data sizes:     COMRAM   BANK0   BANK1   BANK2   BANK3   BANK4   BANK5   BANK6   BANK7
  7632 ;;      Params:         1       0       0       0       0       0       0       0       0
  7633 ;;      Locals:         3       0       0       0       0       0       0       0       0
  7634 ;;      Temps:          0       0       0       0       0       0       0       0       0
  7635 ;;      Totals:         4       0       0       0       0       0       0       0       0
  7636 ;;Total ram usage:        4 bytes
  7637 ;; Hardware stack levels used:    1
  7638 ;; Hardware stack levels required when called:    1
  7639 ;; This function calls:
  7640 ;;		_USBConfigureEndpoint
  7641 ;; This function is called by:
  7642 ;;		_CDCInitEP
  7643 ;; This function uses a non-reentrant model
  7644 ;;
  7645                           
  7646                           	psect	text37
  7647  00239C                     __ptext37:
  7648                           	opt stack 0
  7649  00239C                     _USBEnableEndpoint:
  7650                           	opt stack 19
  7651                           
  7652                           ;incstack = 0
  7653                           ;USBEnableEndpoint@ep stored from wreg
  7654  00239C  6E38               	movwf	USBEnableEndpoint@ep,c
  7655                           
  7656                           ;usb_device.c: 880: unsigned char* p;
  7657                           ;usb_device.c: 884: if(options & 0x04)
  7658  00239E  A435               	btfss	USBEnableEndpoint@options,2,c
  7659  0023A0  D005               	goto	i2l2774
  7660                           
  7661                           ;usb_device.c: 885: {
  7662                           ;usb_device.c: 886: USBConfigureEndpoint(ep, 0);
  7663  0023A2  0E00               	movlw	0
  7664  0023A4  6E2D               	movwf	USBConfigureEndpoint@direction,c
  7665  0023A6  5038               	movf	USBEnableEndpoint@ep,w,c
  7666  0023A8  ECB2  F00F         	call	_USBConfigureEndpoint
  7667  0023AC                     i2l2774:
  7668                           
  7669                           ;usb_device.c: 887: }
  7670                           ;usb_device.c: 888: if(options & 0x02)
  7671  0023AC  A235               	btfss	USBEnableEndpoint@options,1,c
  7672  0023AE  D005               	goto	i2l2778
  7673                           
  7674                           ;usb_device.c: 889: {
  7675                           ;usb_device.c: 890: USBConfigureEndpoint(ep, 1);
  7676  0023B0  0E01               	movlw	1
  7677  0023B2  6E2D               	movwf	USBConfigureEndpoint@direction,c
  7678  0023B4  5038               	movf	USBEnableEndpoint@ep,w,c
  7679  0023B6  ECB2  F00F         	call	_USBConfigureEndpoint
  7680  0023BA                     i2l2778:
  7681                           
  7682                           ;usb_device.c: 891: }
  7683                           ;usb_device.c: 899: p = (unsigned char*)(&UEP0+ep);
  7684  0023BA  5038               	movf	USBEnableEndpoint@ep,w,c
  7685  0023BC  0D01               	mullw	1
  7686  0023BE  0E70               	movlw	112
  7687  0023C0  24F3               	addwf	prodl,w,c
  7688  0023C2  6E36               	movwf	USBEnableEndpoint@p,c
  7689  0023C4  0E0F               	movlw	15
  7690  0023C6  20F4               	addwfc	prodh,w,c
  7691  0023C8  6E37               	movwf	USBEnableEndpoint@p+1,c
  7692                           
  7693                           ;usb_device.c: 901: *p = options;
  7694  0023CA  C036  FFD9         	movff	USBEnableEndpoint@p,fsr2l
  7695  0023CE  C037  FFDA         	movff	USBEnableEndpoint@p+1,fsr2h
  7696  0023D2  C035  FFDF         	movff	USBEnableEndpoint@options,indf2
  7697  0023D6  0012               	return		;funcret
  7698  0023D8                     __end_of_USBEnableEndpoint:
  7699                           	opt stack 0
  7700                           pclatu	equ	0xFFB
  7701                           pclath	equ	0xFFA
  7702                           tblptru	equ	0xFF8
  7703                           tblptrh	equ	0xFF7
  7704                           tblptrl	equ	0xFF6
  7705                           tablat	equ	0xFF5
  7706                           prodh	equ	0xFF4
  7707                           prodl	equ	0xFF3
  7708                           intcon	equ	0xFF2
  7709                           postinc0	equ	0xFEE
  7710                           fsr0h	equ	0xFEA
  7711                           fsr0l	equ	0xFE9
  7712                           wreg	equ	0xFE8
  7713                           indf1	equ	0xFE7
  7714                           fsr1h	equ	0xFE2
  7715                           fsr1l	equ	0xFE1
  7716                           bsr	equ	0xFE0
  7717                           indf2	equ	0xFDF
  7718                           postinc2	equ	0xFDE
  7719                           postdec2	equ	0xFDD
  7720                           plusw2	equ	0xFDB
  7721                           fsr2h	equ	0xFDA
  7722                           fsr2l	equ	0xFD9
  7723                           status	equ	0xFD8
  7724                           
  7725 ;; *************** function _USBConfigureEndpoint *****************
  7726 ;; Defined at:
  7727 ;;		line 1543 in file "../mla/v2017_03_06/framework/usb/src/usb_device.c"
  7728 ;; Parameters:    Size  Location     Type
  7729 ;;  EPNum           1    wreg     unsigned char 
  7730 ;;  direction       1    0[COMRAM] unsigned char 
  7731 ;; Auto vars:     Size  Location     Type
  7732 ;;  EPNum           1    5[COMRAM] unsigned char 
  7733 ;;  handle          2    6[COMRAM] PTR volatile struct __BD
  7734 ;;		 -> BDT(48), 
  7735 ;; Return value:  Size  Location     Type
  7736 ;;                  1    wreg      void 
  7737 ;; Registers used:
  7738 ;;		wreg, fsr2l, fsr2h, status,2, status,0, prodl, prodh
  7739 ;; Tracked objects:
  7740 ;;		On entry : 0/0
  7741 ;;		On exit  : 0/0
  7742 ;;		Unchanged: 0/0
  7743 ;; Data sizes:     COMRAM   BANK0   BANK1   BANK2   BANK3   BANK4   BANK5   BANK6   BANK7
  7744 ;;      Params:         1       0       0       0       0       0       0       0       0
  7745 ;;      Locals:         3       0       0       0       0       0       0       0       0
  7746 ;;      Temps:          4       0       0       0       0       0       0       0       0
  7747 ;;      Totals:         8       0       0       0       0       0       0       0       0
  7748 ;;Total ram usage:        8 bytes
  7749 ;; Hardware stack levels used:    1
  7750 ;; This function calls:
  7751 ;;		Nothing
  7752 ;; This function is called by:
  7753 ;;		_USBEnableEndpoint
  7754 ;; This function uses a non-reentrant model
  7755 ;;
  7756                           
  7757                           	psect	text38
  7758  001F64                     __ptext38:
  7759                           	opt stack 0
  7760  001F64                     _USBConfigureEndpoint:
  7761                           	opt stack 19
  7762                           
  7763                           ;incstack = 0
  7764                           ;USBConfigureEndpoint@EPNum stored from wreg
  7765  001F64  6E32               	movwf	USBConfigureEndpoint@EPNum,c
  7766                           
  7767                           ;usb_device.c: 1545: volatile BDT_ENTRY* handle;
  7768                           ;usb_device.c: 1549: handle = (volatile BDT_ENTRY*)&BDT[0];
  7769  001F66  0E00               	movlw	0
  7770  001F68  6E33               	movwf	USBConfigureEndpoint@handle,c
  7771  001F6A  0E04               	movlw	4
  7772  001F6C  6E34               	movwf	USBConfigureEndpoint@handle+1,c
  7773                           
  7774                           ;usb_device.c: 1550: handle += (4*EPNum+2*direction+0u);
  7775  001F6E  502D               	movf	USBConfigureEndpoint@direction,w,c
  7776  001F70  6E2E               	movwf	??_USBConfigureEndpoint& (0+255),c
  7777  001F72  6A2F               	clrf	(??_USBConfigureEndpoint+1)& (0+255),c
  7778  001F74  90D8               	bcf	status,0,c
  7779  001F76  362E               	rlcf	??_USBConfigureEndpoint,f,c
  7780  001F78  362F               	rlcf	??_USBConfigureEndpoint+1,f,c
  7781  001F7A  5032               	movf	USBConfigureEndpoint@EPNum,w,c
  7782  001F7C  6E30               	movwf	(??_USBConfigureEndpoint+2)& (0+255),c
  7783  001F7E  6A31               	clrf	(??_USBConfigureEndpoint+3)& (0+255),c
  7784  001F80  90D8               	bcf	status,0,c
  7785  001F82  3630               	rlcf	??_USBConfigureEndpoint+2,f,c
  7786  001F84  3631               	rlcf	??_USBConfigureEndpoint+3,f,c
  7787  001F86  90D8               	bcf	status,0,c
  7788  001F88  3630               	rlcf	??_USBConfigureEndpoint+2,f,c
  7789  001F8A  3631               	rlcf	??_USBConfigureEndpoint+3,f,c
  7790  001F8C  502E               	movf	??_USBConfigureEndpoint,w,c
  7791  001F8E  2630               	addwf	??_USBConfigureEndpoint+2,f,c
  7792  001F90  502F               	movf	??_USBConfigureEndpoint+1,w,c
  7793  001F92  2231               	addwfc	??_USBConfigureEndpoint+3,f,c
  7794  001F94  90D8               	bcf	status,0,c
  7795  001F96  3630               	rlcf	??_USBConfigureEndpoint+2,f,c
  7796  001F98  3631               	rlcf	??_USBConfigureEndpoint+3,f,c
  7797  001F9A  90D8               	bcf	status,0,c
  7798  001F9C  3630               	rlcf	??_USBConfigureEndpoint+2,f,c
  7799  001F9E  3631               	rlcf	??_USBConfigureEndpoint+3,f,c
  7800  001FA0  5030               	movf	??_USBConfigureEndpoint+2,w,c
  7801  001FA2  2633               	addwf	USBConfigureEndpoint@handle,f,c
  7802  001FA4  5031               	movf	??_USBConfigureEndpoint+3,w,c
  7803  001FA6  2234               	addwfc	USBConfigureEndpoint@handle+1,f,c
  7804                           
  7805                           ;usb_device.c: 1552: handle->STAT.UOWN = 0;
  7806  001FA8  C033  FFD9         	movff	USBConfigureEndpoint@handle,fsr2l
  7807  001FAC  C034  FFDA         	movff	USBConfigureEndpoint@handle+1,fsr2h
  7808  001FB0  9EDF               	bcf	indf2,7,c
  7809                           
  7810                           ;usb_device.c: 1557: if(direction == 0)
  7811  001FB2  502D               	movf	USBConfigureEndpoint@direction,w,c
  7812  001FB4  A4D8               	btfss	status,2,c
  7813  001FB6  D007               	goto	i2l2764
  7814                           
  7815                           ;usb_device.c: 1558: {
  7816                           ;usb_device.c: 1559: pBDTEntryOut[EPNum] = handle;
  7817  001FB8  5032               	movf	USBConfigureEndpoint@EPNum,w,c
  7818  001FBA  0D02               	mullw	2
  7819  001FBC  0E74               	movlw	low _pBDTEntryOut
  7820  001FBE  24F3               	addwf	prodl,w,c
  7821  001FC0  6ED9               	movwf	fsr2l,c
  7822  001FC2  0E00               	movlw	high _pBDTEntryOut
  7823  001FC4  D006               	goto	L14
  7824  001FC6                     i2l2764:
  7825                           
  7826                           ;usb_device.c: 1561: else
  7827                           ;usb_device.c: 1562: {
  7828                           ;usb_device.c: 1563: pBDTEntryIn[EPNum] = handle;
  7829  001FC6  5032               	movf	USBConfigureEndpoint@EPNum,w,c
  7830  001FC8  0D02               	mullw	2
  7831  001FCA  0E6E               	movlw	low _pBDTEntryIn
  7832  001FCC  24F3               	addwf	prodl,w,c
  7833  001FCE  6ED9               	movwf	fsr2l,c
  7834  001FD0  0E00               	movlw	high _pBDTEntryIn
  7835  001FD2                     L14:
  7836  001FD2  20F4               	addwfc	prodh,w,c
  7837  001FD4  6EDA               	movwf	fsr2h,c
  7838  001FD6  C033  FFDE         	movff	USBConfigureEndpoint@handle,postinc2
  7839  001FDA  C034  FFDD         	movff	USBConfigureEndpoint@handle+1,postdec2
  7840                           
  7841                           ;usb_device.c: 1564: }
  7842                           ;usb_device.c: 1567: handle->STAT.DTS = 0;
  7843  001FDE  C033  FFD9         	movff	USBConfigureEndpoint@handle,fsr2l
  7844  001FE2  C034  FFDA         	movff	USBConfigureEndpoint@handle+1,fsr2h
  7845  001FE6  9CDF               	bcf	indf2,6,c
  7846                           
  7847                           ;usb_device.c: 1568: (handle+1)->STAT.DTS = 1;
  7848  001FE8  EE20 F004          	lfsr	2,4
  7849  001FEC  5033               	movf	USBConfigureEndpoint@handle,w,c
  7850  001FEE  26D9               	addwf	fsr2l,f,c
  7851  001FF0  5034               	movf	USBConfigureEndpoint@handle+1,w,c
  7852  001FF2  22DA               	addwfc	fsr2h,f,c
  7853  001FF4  8CDF               	bsf	indf2,6,c
  7854  001FF6  0012               	return		;funcret
  7855  001FF8                     __end_of_USBConfigureEndpoint:
  7856                           	opt stack 0
  7857                           pclatu	equ	0xFFB
  7858                           pclath	equ	0xFFA
  7859                           tblptru	equ	0xFF8
  7860                           tblptrh	equ	0xFF7
  7861                           tblptrl	equ	0xFF6
  7862                           tablat	equ	0xFF5
  7863                           prodh	equ	0xFF4
  7864                           prodl	equ	0xFF3
  7865                           intcon	equ	0xFF2
  7866                           postinc0	equ	0xFEE
  7867                           fsr0h	equ	0xFEA
  7868                           fsr0l	equ	0xFE9
  7869                           wreg	equ	0xFE8
  7870                           indf1	equ	0xFE7
  7871                           fsr1h	equ	0xFE2
  7872                           fsr1l	equ	0xFE1
  7873                           bsr	equ	0xFE0
  7874                           indf2	equ	0xFDF
  7875                           postinc2	equ	0xFDE
  7876                           postdec2	equ	0xFDD
  7877                           plusw2	equ	0xFDB
  7878                           fsr2h	equ	0xFDA
  7879                           fsr2l	equ	0xFD9
  7880                           status	equ	0xFD8
  7881                           
  7882 ;; *************** function _USBCtrlTrfOutHandler *****************
  7883 ;; Defined at:
  7884 ;;		line 2538 in file "../mla/v2017_03_06/framework/usb/src/usb_device.c"
  7885 ;; Parameters:    Size  Location     Type
  7886 ;;		None
  7887 ;; Auto vars:     Size  Location     Type
  7888 ;;		None
  7889 ;; Return value:  Size  Location     Type
  7890 ;;                  1    wreg      void 
  7891 ;; Registers used:
  7892 ;;		wreg, fsr1l, fsr1h, fsr2l, fsr2h, status,2, status,0, pclath, tosl, prodl, prodh, cstack
  7893 ;; Tracked objects:
  7894 ;;		On entry : 0/0
  7895 ;;		On exit  : 0/0
  7896 ;;		Unchanged: 0/0
  7897 ;; Data sizes:     COMRAM   BANK0   BANK1   BANK2   BANK3   BANK4   BANK5   BANK6   BANK7
  7898 ;;      Params:         0       0       0       0       0       0       0       0       0
  7899 ;;      Locals:         0       0       0       0       0       0       0       0       0
  7900 ;;      Temps:          0       0       0       0       0       0       0       0       0
  7901 ;;      Totals:         0       0       0       0       0       0       0       0       0
  7902 ;;Total ram usage:        0 bytes
  7903 ;; Hardware stack levels used:    1
  7904 ;; Hardware stack levels required when called:    3
  7905 ;; This function calls:
  7906 ;;		_USBCtrlTrfRxService
  7907 ;; This function is called by:
  7908 ;;		_USBCtrlEPService
  7909 ;; This function uses a non-reentrant model
  7910 ;;
  7911                           
  7912                           	psect	text39
  7913  002220                     __ptext39:
  7914                           	opt stack 0
  7915  002220                     _USBCtrlTrfOutHandler:
  7916                           	opt stack 19
  7917                           
  7918                           ;usb_device.c: 2540: if(controlTransferState == 2)
  7919                           
  7920                           ;incstack = 0
  7921  002220  0E02               	movlw	2
  7922  002222  1826               	xorwf	_controlTransferState,w,c	;volatile
  7923  002224  A4D8               	btfss	status,2,c
  7924  002226  D003               	goto	i2l3442
  7925                           
  7926                           ;usb_device.c: 2541: {
  7927                           ;usb_device.c: 2542: USBCtrlTrfRxService();
  7928  002228  EC0D  F007         	call	_USBCtrlTrfRxService	;wreg free
  7929                           
  7930                           ;usb_device.c: 2543: }
  7931  00222C  0012               	return	
  7932  00222E                     i2l3442:
  7933                           
  7934                           ;usb_device.c: 2544: else
  7935                           ;usb_device.c: 2545: {
  7936                           ;usb_device.c: 2548: controlTransferState = 0;
  7937  00222E  0E00               	movlw	0
  7938  002230  6E26               	movwf	_controlTransferState,c	;volatile
  7939                           
  7940                           ;usb_device.c: 2555: if(BothEP0OutUOWNsSet == 0)
  7941  002232  5022               	movf	_BothEP0OutUOWNsSet,w,c	;volatile
  7942  002234  A4D8               	btfss	status,2,c
  7943  002236  D01F               	goto	i2l3450
  7944                           
  7945                           ;usb_device.c: 2556: {
  7946                           ;usb_device.c: 2557: pBDTEntryEP0OutNext->CNT = 8;
  7947  002238  EE20 F001          	lfsr	2,1
  7948  00223C  500F               	movf	_pBDTEntryEP0OutNext,w,c
  7949  00223E  26D9               	addwf	fsr2l,f,c
  7950  002240  5010               	movf	_pBDTEntryEP0OutNext+1,w,c
  7951  002242  22DA               	addwfc	fsr2h,f,c
  7952  002244  0E08               	movlw	8
  7953  002246  6EDF               	movwf	indf2,c
  7954                           
  7955                           ;usb_device.c: 2558: pBDTEntryEP0OutNext->ADR = ((uint16_t)(&SetupPkt));
  7956  002248  EE20 F002          	lfsr	2,2
  7957  00224C  500F               	movf	_pBDTEntryEP0OutNext,w,c
  7958  00224E  26D9               	addwf	fsr2l,f,c
  7959  002250  5010               	movf	_pBDTEntryEP0OutNext+1,w,c
  7960  002252  22DA               	addwfc	fsr2h,f,c
  7961  002254  0E30               	movlw	48
  7962  002256  6EDE               	movwf	postinc2,c
  7963  002258  0E04               	movlw	4
  7964  00225A  6EDD               	movwf	postdec2,c
  7965                           
  7966                           ;usb_device.c: 2559: pBDTEntryEP0OutNext->STAT.Val = 0x00|(0x08 & 0x08)|0x04;
  7967  00225C  C00F  FFD9         	movff	_pBDTEntryEP0OutNext,fsr2l
  7968  002260  C010  FFDA         	movff	_pBDTEntryEP0OutNext+1,fsr2h
  7969  002264  0E0C               	movlw	12
  7970  002266  6EDF               	movwf	indf2,c
  7971                           
  7972                           ;usb_device.c: 2560: pBDTEntryEP0OutNext->STAT.Val |= 0x80;
  7973  002268  C00F  FFD9         	movff	_pBDTEntryEP0OutNext,fsr2l
  7974  00226C  C010  FFDA         	movff	_pBDTEntryEP0OutNext+1,fsr2h
  7975  002270  0E00               	movlw	0
  7976  002272  8EDB               	bsf	plusw2,7,c
  7977                           
  7978                           ;usb_device.c: 2561: }
  7979  002274  0012               	return	
  7980  002276                     i2l3450:
  7981                           
  7982                           ;usb_device.c: 2562: else
  7983                           ;usb_device.c: 2563: {
  7984                           ;usb_device.c: 2564: BothEP0OutUOWNsSet = 0;
  7985  002276  0E00               	movlw	0
  7986  002278  6E22               	movwf	_BothEP0OutUOWNsSet,c	;volatile
  7987  00227A  0012               	return	
  7988  00227C                     __end_of_USBCtrlTrfOutHandler:
  7989                           	opt stack 0
  7990                           pclatu	equ	0xFFB
  7991                           pclath	equ	0xFFA
  7992                           tblptru	equ	0xFF8
  7993                           tblptrh	equ	0xFF7
  7994                           tblptrl	equ	0xFF6
  7995                           tablat	equ	0xFF5
  7996                           prodh	equ	0xFF4
  7997                           prodl	equ	0xFF3
  7998                           intcon	equ	0xFF2
  7999                           postinc0	equ	0xFEE
  8000                           fsr0h	equ	0xFEA
  8001                           fsr0l	equ	0xFE9
  8002                           wreg	equ	0xFE8
  8003                           indf1	equ	0xFE7
  8004                           fsr1h	equ	0xFE2
  8005                           fsr1l	equ	0xFE1
  8006                           bsr	equ	0xFE0
  8007                           indf2	equ	0xFDF
  8008                           postinc2	equ	0xFDE
  8009                           postdec2	equ	0xFDD
  8010                           plusw2	equ	0xFDB
  8011                           fsr2h	equ	0xFDA
  8012                           fsr2l	equ	0xFD9
  8013                           status	equ	0xFD8
  8014                           
  8015 ;; *************** function _USBCtrlTrfRxService *****************
  8016 ;; Defined at:
  8017 ;;		line 1852 in file "../mla/v2017_03_06/framework/usb/src/usb_device.c"
  8018 ;; Parameters:    Size  Location     Type
  8019 ;;		None
  8020 ;; Auto vars:     Size  Location     Type
  8021 ;;  byteToRead      1   18[COMRAM] unsigned char 
  8022 ;;  i               1   17[COMRAM] unsigned char 
  8023 ;; Return value:  Size  Location     Type
  8024 ;;                  1    wreg      void 
  8025 ;; Registers used:
  8026 ;;		wreg, fsr1l, fsr1h, fsr2l, fsr2h, status,2, status,0, pclath, tosl, prodl, prodh, cstack
  8027 ;; Tracked objects:
  8028 ;;		On entry : 0/0
  8029 ;;		On exit  : 0/0
  8030 ;;		Unchanged: 0/0
  8031 ;; Data sizes:     COMRAM   BANK0   BANK1   BANK2   BANK3   BANK4   BANK5   BANK6   BANK7
  8032 ;;      Params:         0       0       0       0       0       0       0       0       0
  8033 ;;      Locals:         2       0       0       0       0       0       0       0       0
  8034 ;;      Temps:          0       0       0       0       0       0       0       0       0
  8035 ;;      Totals:         2       0       0       0       0       0       0       0       0
  8036 ;;Total ram usage:        2 bytes
  8037 ;; Hardware stack levels used:    1
  8038 ;; Hardware stack levels required when called:    2
  8039 ;; This function calls:
  8040 ;;		_USART_mySetLineCodingHandler
  8041 ;;		_USBCtrlEPAllowStatusStage
  8042 ;; This function is called by:
  8043 ;;		_USBCtrlTrfOutHandler
  8044 ;; This function uses a non-reentrant model
  8045 ;;
  8046                           
  8047                           	psect	text40
  8048  000E1A                     __ptext40:
  8049                           	opt stack 0
  8050  000E1A                     _USBCtrlTrfRxService:
  8051                           	opt stack 19
  8052                           
  8053                           ;usb_device.c: 1854: uint8_t byteToRead;
  8054                           ;usb_device.c: 1855: uint8_t i;
  8055                           ;usb_device.c: 1859: byteToRead = pBDTEntryEP0OutCurrent->CNT;
  8056                           
  8057                           ;incstack = 0
  8058  000E1A  EE20 F001          	lfsr	2,1
  8059  000E1E  5011               	movf	_pBDTEntryEP0OutCurrent,w,c
  8060  000E20  26D9               	addwf	fsr2l,f,c
  8061  000E22  5012               	movf	_pBDTEntryEP0OutCurrent+1,w,c
  8062  000E24  22DA               	addwfc	fsr2h,f,c
  8063  000E26  50DF               	movf	indf2,w,c
  8064  000E28  6E3F               	movwf	USBCtrlTrfRxService@byteToRead,c
  8065                           
  8066                           ;usb_device.c: 1865: if(byteToRead > outPipes[0].wCount.Val)
  8067  000E2A  503F               	movf	USBCtrlTrfRxService@byteToRead,w,c
  8068  000E2C  0100               	movlb	0	; () banked
  8069  000E2E  5D64               	subwf	(_outPipes+4)& (0+255),w,b	;volatile
  8070  000E30  0E00               	movlw	0
  8071  000E32  5965               	subwfb	(_outPipes+5)& (0+255),w,b	;volatile
  8072  000E34  A0D8               	btfss	status,0,c
  8073                           
  8074                           ; BSR set to: 0
  8075                           ;usb_device.c: 1866: {
  8076                           ;usb_device.c: 1867: byteToRead = outPipes[0].wCount.Val;
  8077  000E36  C064  F03F         	movff	_outPipes+4,USBCtrlTrfRxService@byteToRead	;volatile
  8078                           
  8079                           ; BSR set to: 0
  8080                           ;usb_device.c: 1868: }
  8081                           ;usb_device.c: 1870: outPipes[0].wCount.Val -= byteToRead;
  8082                           
  8083                           ; BSR set to: 0
  8084  000E3A  503F               	movf	USBCtrlTrfRxService@byteToRead,w,c
  8085  000E3C  0100               	movlb	0	; () banked
  8086  000E3E  5F64               	subwf	(_outPipes+4)& (0+255),f,b	;volatile
  8087  000E40  0E00               	movlw	0
  8088  000E42  5B65               	subwfb	(_outPipes+5)& (0+255),f,b	;volatile
  8089                           
  8090                           ; BSR set to: 0
  8091                           ;usb_device.c: 1874: for(i=0;i<byteToRead;i++)
  8092  000E44  0E00               	movlw	0
  8093  000E46  6E3E               	movwf	USBCtrlTrfRxService@i,c
  8094  000E48  D012               	goto	i2l3330
  8095  000E4A                     i2l3324:
  8096                           
  8097                           ; BSR set to: 0
  8098                           ;usb_device.c: 1875: {
  8099                           ;usb_device.c: 1876: *outPipes[0].pDst.bRam++ = CtrlTrfData[i];
  8100  000E4A  503E               	movf	USBCtrlTrfRxService@i,w,c
  8101  000E4C  0D01               	mullw	1
  8102  000E4E  0E38               	movlw	56
  8103  000E50  24F3               	addwf	prodl,w,c
  8104  000E52  6ED9               	movwf	fsr2l,c
  8105  000E54  0E04               	movlw	4
  8106  000E56  20F4               	addwfc	prodh,w,c
  8107  000E58  6EDA               	movwf	fsr2h,c
  8108  000E5A  C060  FFE1         	movff	_outPipes,fsr1l	;volatile
  8109  000E5E  C061  FFE2         	movff	_outPipes+1,fsr1h	;volatile
  8110  000E62  CFDF FFE7          	movff	indf2,indf1
  8111                           
  8112                           ; BSR set to: 0
  8113  000E66  0100               	movlb	0	; () banked
  8114  000E68  4B60               	infsnz	_outPipes& (0+255),f,b	;volatile
  8115  000E6A  2B61               	incf	(_outPipes+1)& (0+255),f,b	;volatile
  8116                           
  8117                           ; BSR set to: 0
  8118  000E6C  2A3E               	incf	USBCtrlTrfRxService@i,f,c
  8119  000E6E                     i2l3330:
  8120                           
  8121                           ; BSR set to: 0
  8122  000E6E  503F               	movf	USBCtrlTrfRxService@byteToRead,w,c
  8123  000E70  5C3E               	subwf	USBCtrlTrfRxService@i,w,c
  8124  000E72  A0D8               	btfss	status,0,c
  8125  000E74  D7EA               	goto	i2l3324
  8126                           
  8127                           ; BSR set to: 0
  8128                           ;usb_device.c: 1877: }
  8129                           ;usb_device.c: 1881: if(outPipes[0].wCount.Val > 0)
  8130                           
  8131                           ; BSR set to: 0
  8132  000E76  0100               	movlb	0	; () banked
  8133  000E78  5164               	movf	(_outPipes+4)& (0+255),w,b	;volatile
  8134  000E7A  0100               	movlb	0	; () banked
  8135  000E7C  1165               	iorwf	(_outPipes+5)& (0+255),w,b	;volatile
  8136  000E7E  B4D8               	btfsc	status,2,c
  8137  000E80  D032               	goto	i2l3346
  8138                           
  8139                           ; BSR set to: 0
  8140                           ;usb_device.c: 1882: {
  8141                           ;usb_device.c: 1883: pBDTEntryEP0OutNext->CNT = 8;
  8142  000E82  EE20 F001          	lfsr	2,1
  8143  000E86  500F               	movf	_pBDTEntryEP0OutNext,w,c
  8144  000E88  26D9               	addwf	fsr2l,f,c
  8145  000E8A  5010               	movf	_pBDTEntryEP0OutNext+1,w,c
  8146  000E8C  22DA               	addwfc	fsr2h,f,c
  8147  000E8E  0E08               	movlw	8
  8148  000E90  6EDF               	movwf	indf2,c
  8149                           
  8150                           ;usb_device.c: 1884: pBDTEntryEP0OutNext->ADR = ((uint16_t)(&CtrlTrfData));
  8151  000E92  EE20 F002          	lfsr	2,2
  8152  000E96  500F               	movf	_pBDTEntryEP0OutNext,w,c
  8153  000E98  26D9               	addwf	fsr2l,f,c
  8154  000E9A  5010               	movf	_pBDTEntryEP0OutNext+1,w,c
  8155  000E9C  22DA               	addwfc	fsr2h,f,c
  8156  000E9E  0E38               	movlw	56
  8157  000EA0  6EDE               	movwf	postinc2,c
  8158  000EA2  0E04               	movlw	4
  8159  000EA4  6EDD               	movwf	postdec2,c
  8160                           
  8161                           ; BSR set to: 0
  8162                           ;usb_device.c: 1885: if(pBDTEntryEP0OutCurrent->STAT.DTS == 0)
  8163  000EA6  C011  FFD9         	movff	_pBDTEntryEP0OutCurrent,fsr2l
  8164  000EAA  C012  FFDA         	movff	_pBDTEntryEP0OutCurrent+1,fsr2h
  8165  000EAE  BCDF               	btfsc	indf2,6,c
  8166  000EB0  D00D               	goto	i2l3342
  8167                           
  8168                           ; BSR set to: 0
  8169                           ;usb_device.c: 1886: {
  8170                           ;usb_device.c: 1887: pBDTEntryEP0OutNext->STAT.Val = 0x40|(0x08 & 0x08);
  8171  000EB2  C00F  FFD9         	movff	_pBDTEntryEP0OutNext,fsr2l
  8172  000EB6  C010  FFDA         	movff	_pBDTEntryEP0OutNext+1,fsr2h
  8173  000EBA  0E48               	movlw	72
  8174  000EBC  6EDF               	movwf	indf2,c
  8175                           
  8176                           ; BSR set to: 0
  8177                           ;usb_device.c: 1888: pBDTEntryEP0OutNext->STAT.Val |= 0x80;
  8178  000EBE  C00F  FFD9         	movff	_pBDTEntryEP0OutNext,fsr2l
  8179  000EC2  C010  FFDA         	movff	_pBDTEntryEP0OutNext+1,fsr2h
  8180  000EC6  0E00               	movlw	0
  8181  000EC8  8EDB               	bsf	plusw2,7,c
  8182                           
  8183                           ;usb_device.c: 1889: }
  8184  000ECA  0012               	return	
  8185  000ECC                     i2l3342:
  8186                           
  8187                           ; BSR set to: 0
  8188                           ;usb_device.c: 1890: else
  8189                           ;usb_device.c: 1891: {
  8190                           ;usb_device.c: 1892: pBDTEntryEP0OutNext->STAT.Val = 0x00|(0x08 & 0x08);
  8191  000ECC  C00F  FFD9         	movff	_pBDTEntryEP0OutNext,fsr2l
  8192  000ED0  C010  FFDA         	movff	_pBDTEntryEP0OutNext+1,fsr2h
  8193  000ED4  0E08               	movlw	8
  8194  000ED6  6EDF               	movwf	indf2,c
  8195                           
  8196                           ; BSR set to: 0
  8197                           ;usb_device.c: 1893: pBDTEntryEP0OutNext->STAT.Val |= 0x80;
  8198  000ED8  C00F  FFD9         	movff	_pBDTEntryEP0OutNext,fsr2l
  8199  000EDC  C010  FFDA         	movff	_pBDTEntryEP0OutNext+1,fsr2h
  8200  000EE0  0E00               	movlw	0
  8201  000EE2  8EDB               	bsf	plusw2,7,c
  8202                           
  8203                           ; BSR set to: 0
  8204                           ;usb_device.c: 1894: }
  8205                           ;usb_device.c: 1895: }
  8206  000EE4  0012               	return	
  8207  000EE6                     i2l3346:
  8208                           
  8209                           ; BSR set to: 0
  8210                           ;usb_device.c: 1896: else
  8211                           ;usb_device.c: 1897: {
  8212                           ;usb_device.c: 1901: pBDTEntryEP0OutNext->CNT = 8;
  8213  000EE6  EE20 F001          	lfsr	2,1
  8214  000EEA  500F               	movf	_pBDTEntryEP0OutNext,w,c
  8215  000EEC  26D9               	addwf	fsr2l,f,c
  8216  000EEE  5010               	movf	_pBDTEntryEP0OutNext+1,w,c
  8217  000EF0  22DA               	addwfc	fsr2h,f,c
  8218  000EF2  0E08               	movlw	8
  8219  000EF4  6EDF               	movwf	indf2,c
  8220                           
  8221                           ;usb_device.c: 1902: pBDTEntryEP0OutNext->ADR = ((uint16_t)(&SetupPkt));
  8222  000EF6  EE20 F002          	lfsr	2,2
  8223  000EFA  500F               	movf	_pBDTEntryEP0OutNext,w,c
  8224  000EFC  26D9               	addwf	fsr2l,f,c
  8225  000EFE  5010               	movf	_pBDTEntryEP0OutNext+1,w,c
  8226  000F00  22DA               	addwfc	fsr2h,f,c
  8227  000F02  0E30               	movlw	48
  8228  000F04  6EDE               	movwf	postinc2,c
  8229  000F06  0E04               	movlw	4
  8230  000F08  6EDD               	movwf	postdec2,c
  8231                           
  8232                           ; BSR set to: 0
  8233                           ;usb_device.c: 1906: pBDTEntryEP0OutNext->STAT.Val = 0x04;
  8234  000F0A  C00F  FFD9         	movff	_pBDTEntryEP0OutNext,fsr2l
  8235  000F0E  C010  FFDA         	movff	_pBDTEntryEP0OutNext+1,fsr2h
  8236  000F12  0E04               	movlw	4
  8237  000F14  6EDF               	movwf	indf2,c
  8238                           
  8239                           ; BSR set to: 0
  8240                           ;usb_device.c: 1907: pBDTEntryEP0OutNext->STAT.Val |= 0x80;
  8241  000F16  C00F  FFD9         	movff	_pBDTEntryEP0OutNext,fsr2l
  8242  000F1A  C010  FFDA         	movff	_pBDTEntryEP0OutNext+1,fsr2h
  8243  000F1E  0E00               	movlw	0
  8244  000F20  8EDB               	bsf	plusw2,7,c
  8245                           
  8246                           ; BSR set to: 0
  8247                           ;usb_device.c: 1914: if(outPipes[0].pFunc != (0))
  8248  000F22  0100               	movlb	0	; () banked
  8249  000F24  5166               	movf	(_outPipes+6)& (0+255),w,b	;volatile
  8250  000F26  0100               	movlb	0	; () banked
  8251  000F28  1167               	iorwf	(_outPipes+7)& (0+255),w,b	;volatile
  8252  000F2A  B4D8               	btfsc	status,2,c
  8253  000F2C  D00E               	goto	i2l3356
  8254                           
  8255                           ; BSR set to: 0
  8256                           ;usb_device.c: 1915: {
  8257                           ;usb_device.c: 1921: outPipes[0].pFunc();
  8258  000F2E  EE20  F066         	lfsr	2,_outPipes+6	;volatile
  8259  000F32  D801               	call	i2u257_48
  8260  000F34  D00A               	goto	i2l3356
  8261  000F36                     i2u257_48:
  8262  000F36  0005               	push	
  8263  000F38  6EFA               	movwf	pclath,c
  8264  000F3A  50DE               	movf	postinc2,w,c
  8265  000F3C  6EFD               	movwf	tosl,c
  8266  000F3E  50DE               	movf	postinc2,w,c
  8267  000F40  6EFE               	movwf	tosh,c
  8268  000F42  50F8               	movf	tblptru,w,c
  8269  000F44  6EFF               	movwf	tosu,c
  8270  000F46  50FA               	movf	pclath,w,c
  8271  000F48  0012               	return		;indir
  8272  000F4A                     i2l3356:
  8273                           
  8274                           ;usb_device.c: 1926: }
  8275                           ;usb_device.c: 1927: outPipes[0].info.bits.busy = 0;
  8276  000F4A  0100               	movlb	0	; () banked
  8277  000F4C  9F63               	bcf	(_outPipes+3)& (0+255),7,b	;volatile
  8278                           
  8279                           ; BSR set to: 0
  8280                           ;usb_device.c: 1941: if(USBDeferStatusStagePacket == 0)
  8281  000F4E  5020               	movf	_USBDeferStatusStagePacket,w,c	;volatile
  8282  000F50  A4D8               	btfss	status,2,c
  8283  000F52  0012               	return	
  8284                           
  8285                           ; BSR set to: 0
  8286                           ;usb_device.c: 1942: {
  8287                           ;usb_device.c: 1943: USBCtrlEPAllowStatusStage();
  8288  000F54  ECA8  F00D         	call	_USBCtrlEPAllowStatusStage	;wreg free
  8289  000F58  0012               	return	
  8290  000F5A                     __end_of_USBCtrlTrfRxService:
  8291                           	opt stack 0
  8292                           tosu	equ	0xFFF
  8293                           tosh	equ	0xFFE
  8294                           tosl	equ	0xFFD
  8295                           pclatu	equ	0xFFB
  8296                           pclath	equ	0xFFA
  8297                           tblptru	equ	0xFF8
  8298                           tblptrh	equ	0xFF7
  8299                           tblptrl	equ	0xFF6
  8300                           tablat	equ	0xFF5
  8301                           prodh	equ	0xFF4
  8302                           prodl	equ	0xFF3
  8303                           intcon	equ	0xFF2
  8304                           postinc0	equ	0xFEE
  8305                           fsr0h	equ	0xFEA
  8306                           fsr0l	equ	0xFE9
  8307                           wreg	equ	0xFE8
  8308                           indf1	equ	0xFE7
  8309                           fsr1h	equ	0xFE2
  8310                           fsr1l	equ	0xFE1
  8311                           bsr	equ	0xFE0
  8312                           indf2	equ	0xFDF
  8313                           postinc2	equ	0xFDE
  8314                           postdec2	equ	0xFDD
  8315                           plusw2	equ	0xFDB
  8316                           fsr2h	equ	0xFDA
  8317                           fsr2l	equ	0xFD9
  8318                           status	equ	0xFD8
  8319                           
  8320 ;; *************** function _USBCtrlEPAllowStatusStage *****************
  8321 ;; Defined at:
  8322 ;;		line 1416 in file "../mla/v2017_03_06/framework/usb/src/usb_device.c"
  8323 ;; Parameters:    Size  Location     Type
  8324 ;;		None
  8325 ;; Auto vars:     Size  Location     Type
  8326 ;;		None
  8327 ;; Return value:  Size  Location     Type
  8328 ;;                  1    wreg      void 
  8329 ;; Registers used:
  8330 ;;		wreg, fsr2l, fsr2h, status,2, status,0
  8331 ;; Tracked objects:
  8332 ;;		On entry : 0/0
  8333 ;;		On exit  : 0/0
  8334 ;;		Unchanged: 0/0
  8335 ;; Data sizes:     COMRAM   BANK0   BANK1   BANK2   BANK3   BANK4   BANK5   BANK6   BANK7
  8336 ;;      Params:         0       0       0       0       0       0       0       0       0
  8337 ;;      Locals:         0       0       0       0       0       0       0       0       0
  8338 ;;      Temps:          0       0       0       0       0       0       0       0       0
  8339 ;;      Totals:         0       0       0       0       0       0       0       0       0
  8340 ;;Total ram usage:        0 bytes
  8341 ;; Hardware stack levels used:    1
  8342 ;; This function calls:
  8343 ;;		Nothing
  8344 ;; This function is called by:
  8345 ;;		_USBDeviceTasks
  8346 ;;		_USBCtrlEPServiceComplete
  8347 ;;		_USBCtrlTrfRxService
  8348 ;; This function uses a non-reentrant model
  8349 ;;
  8350                           
  8351                           	psect	text41
  8352  001B50                     __ptext41:
  8353                           	opt stack 0
  8354  001B50                     _USBCtrlEPAllowStatusStage:
  8355                           	opt stack 20
  8356                           
  8357                           ;usb_device.c: 1423: if(USBStatusStageEnabledFlag1 == 0)
  8358                           
  8359                           ;incstack = 0
  8360  001B50  501F               	movf	_USBStatusStageEnabledFlag1,w,c	;volatile
  8361  001B52  A4D8               	btfss	status,2,c
  8362  001B54  0012               	return	
  8363                           
  8364                           ;usb_device.c: 1424: {
  8365                           ;usb_device.c: 1425: USBStatusStageEnabledFlag1 = 1;
  8366  001B56  0E01               	movlw	1
  8367  001B58  6E1F               	movwf	_USBStatusStageEnabledFlag1,c	;volatile
  8368                           
  8369                           ;usb_device.c: 1426: if(USBStatusStageEnabledFlag2 == 0)
  8370  001B5A  501E               	movf	_USBStatusStageEnabledFlag2,w,c	;volatile
  8371  001B5C  A4D8               	btfss	status,2,c
  8372  001B5E  0012               	return	
  8373                           
  8374                           ;usb_device.c: 1427: {
  8375                           ;usb_device.c: 1428: USBStatusStageEnabledFlag2 = 1;
  8376  001B60  0E01               	movlw	1
  8377  001B62  6E1E               	movwf	_USBStatusStageEnabledFlag2,c	;volatile
  8378                           
  8379                           ;usb_device.c: 1432: if(controlTransferState == 2)
  8380  001B64  0E02               	movlw	2
  8381  001B66  1826               	xorwf	_controlTransferState,w,c	;volatile
  8382  001B68  A4D8               	btfss	status,2,c
  8383  001B6A  D016               	goto	i2l3000
  8384                           
  8385                           ;usb_device.c: 1433: {
  8386                           ;usb_device.c: 1434: pBDTEntryIn[0]->CNT = 0;
  8387  001B6C  0100               	movlb	0	; () banked
  8388  001B6E  EE20 F001          	lfsr	2,1
  8389  001B72  516E               	movf	_pBDTEntryIn& (0+255),w,b
  8390  001B74  26D9               	addwf	fsr2l,f,c
  8391  001B76  516F               	movf	(_pBDTEntryIn+1)& (0+255),w,b
  8392  001B78  22DA               	addwfc	fsr2h,f,c
  8393  001B7A  0E00               	movlw	0
  8394  001B7C  6EDF               	movwf	indf2,c
  8395                           
  8396                           ; BSR set to: 0
  8397                           ;usb_device.c: 1435: pBDTEntryIn[0]->STAT.Val = 0x40|(0x08 & 0x08);
  8398  001B7E  C06E  FFD9         	movff	_pBDTEntryIn,fsr2l
  8399  001B82  C06F  FFDA         	movff	_pBDTEntryIn+1,fsr2h
  8400  001B86  0E48               	movlw	72
  8401  001B88  6EDF               	movwf	indf2,c
  8402                           
  8403                           ; BSR set to: 0
  8404                           ;usb_device.c: 1436: pBDTEntryIn[0]->STAT.Val |= 0x80;
  8405  001B8A  C06E  FFD9         	movff	_pBDTEntryIn,fsr2l
  8406  001B8E  C06F  FFDA         	movff	_pBDTEntryIn+1,fsr2h
  8407  001B92  0E00               	movlw	0
  8408  001B94  8EDB               	bsf	plusw2,7,c
  8409                           
  8410                           ;usb_device.c: 1437: }
  8411  001B96  0012               	return	
  8412  001B98                     i2l3000:
  8413                           
  8414                           ;usb_device.c: 1438: else if(controlTransferState == 1)
  8415  001B98  0426               	decf	_controlTransferState,w,c	;volatile
  8416  001B9A  A4D8               	btfss	status,2,c
  8417  001B9C  0012               	return	
  8418                           
  8419                           ;usb_device.c: 1439: {
  8420                           ;usb_device.c: 1440: BothEP0OutUOWNsSet = 0;
  8421  001B9E  0E00               	movlw	0
  8422  001BA0  6E22               	movwf	_BothEP0OutUOWNsSet,c	;volatile
  8423                           
  8424                           ;usb_device.c: 1445: pBDTEntryEP0OutCurrent->CNT = 8;
  8425  001BA2  EE20 F001          	lfsr	2,1
  8426  001BA6  5011               	movf	_pBDTEntryEP0OutCurrent,w,c
  8427  001BA8  26D9               	addwf	fsr2l,f,c
  8428  001BAA  5012               	movf	_pBDTEntryEP0OutCurrent+1,w,c
  8429  001BAC  22DA               	addwfc	fsr2h,f,c
  8430  001BAE  0E08               	movlw	8
  8431  001BB0  6EDF               	movwf	indf2,c
  8432                           
  8433                           ;usb_device.c: 1446: pBDTEntryEP0OutCurrent->ADR = ((uint16_t)(&SetupPkt));
  8434  001BB2  EE20 F002          	lfsr	2,2
  8435  001BB6  5011               	movf	_pBDTEntryEP0OutCurrent,w,c
  8436  001BB8  26D9               	addwf	fsr2l,f,c
  8437  001BBA  5012               	movf	_pBDTEntryEP0OutCurrent+1,w,c
  8438  001BBC  22DA               	addwfc	fsr2h,f,c
  8439  001BBE  0E30               	movlw	48
  8440  001BC0  6EDE               	movwf	postinc2,c
  8441  001BC2  0E04               	movlw	4
  8442  001BC4  6EDD               	movwf	postdec2,c
  8443                           
  8444                           ;usb_device.c: 1447: pBDTEntryEP0OutCurrent->STAT.Val = 0x04;
  8445  001BC6  C011  FFD9         	movff	_pBDTEntryEP0OutCurrent,fsr2l
  8446  001BCA  C012  FFDA         	movff	_pBDTEntryEP0OutCurrent+1,fsr2h
  8447  001BCE  0E04               	movlw	4
  8448  001BD0  6EDF               	movwf	indf2,c
  8449                           
  8450                           ;usb_device.c: 1448: pBDTEntryEP0OutCurrent->STAT.Val |= 0x80;
  8451  001BD2  C011  FFD9         	movff	_pBDTEntryEP0OutCurrent,fsr2l
  8452  001BD6  C012  FFDA         	movff	_pBDTEntryEP0OutCurrent+1,fsr2h
  8453  001BDA  0E00               	movlw	0
  8454  001BDC  8EDB               	bsf	plusw2,7,c
  8455                           
  8456                           ;usb_device.c: 1449: BothEP0OutUOWNsSet = 1;
  8457  001BDE  0E01               	movlw	1
  8458  001BE0  6E22               	movwf	_BothEP0OutUOWNsSet,c	;volatile
  8459                           
  8460                           ;usb_device.c: 1453: pBDTEntryEP0OutNext->CNT = 8;
  8461  001BE2  EE20 F001          	lfsr	2,1
  8462  001BE6  500F               	movf	_pBDTEntryEP0OutNext,w,c
  8463  001BE8  26D9               	addwf	fsr2l,f,c
  8464  001BEA  5010               	movf	_pBDTEntryEP0OutNext+1,w,c
  8465  001BEC  22DA               	addwfc	fsr2h,f,c
  8466  001BEE  0E08               	movlw	8
  8467  001BF0  6EDF               	movwf	indf2,c
  8468                           
  8469                           ;usb_device.c: 1454: pBDTEntryEP0OutNext->ADR = ((uint16_t)(&SetupPkt));
  8470  001BF2  EE20 F002          	lfsr	2,2
  8471  001BF6  500F               	movf	_pBDTEntryEP0OutNext,w,c
  8472  001BF8  26D9               	addwf	fsr2l,f,c
  8473  001BFA  5010               	movf	_pBDTEntryEP0OutNext+1,w,c
  8474  001BFC  22DA               	addwfc	fsr2h,f,c
  8475  001BFE  0E30               	movlw	48
  8476  001C00  6EDE               	movwf	postinc2,c
  8477  001C02  0E04               	movlw	4
  8478  001C04  6EDD               	movwf	postdec2,c
  8479                           
  8480                           ;usb_device.c: 1455: pBDTEntryEP0OutNext->STAT.Val = 0x80;
  8481  001C06  C00F  FFD9         	movff	_pBDTEntryEP0OutNext,fsr2l
  8482  001C0A  C010  FFDA         	movff	_pBDTEntryEP0OutNext+1,fsr2h
  8483  001C0E  0E80               	movlw	128
  8484  001C10  6EDF               	movwf	indf2,c
  8485  001C12  0012               	return	
  8486  001C14                     __end_of_USBCtrlEPAllowStatusStage:
  8487                           	opt stack 0
  8488                           tosu	equ	0xFFF
  8489                           tosh	equ	0xFFE
  8490                           tosl	equ	0xFFD
  8491                           pclatu	equ	0xFFB
  8492                           pclath	equ	0xFFA
  8493                           tblptru	equ	0xFF8
  8494                           tblptrh	equ	0xFF7
  8495                           tblptrl	equ	0xFF6
  8496                           tablat	equ	0xFF5
  8497                           prodh	equ	0xFF4
  8498                           prodl	equ	0xFF3
  8499                           intcon	equ	0xFF2
  8500                           postinc0	equ	0xFEE
  8501                           fsr0h	equ	0xFEA
  8502                           fsr0l	equ	0xFE9
  8503                           wreg	equ	0xFE8
  8504                           indf1	equ	0xFE7
  8505                           fsr1h	equ	0xFE2
  8506                           fsr1l	equ	0xFE1
  8507                           bsr	equ	0xFE0
  8508                           indf2	equ	0xFDF
  8509                           postinc2	equ	0xFDE
  8510                           postdec2	equ	0xFDD
  8511                           plusw2	equ	0xFDB
  8512                           fsr2h	equ	0xFDA
  8513                           fsr2l	equ	0xFD9
  8514                           status	equ	0xFD8
  8515                           
  8516 ;; *************** function _USBCtrlTrfInHandler *****************
  8517 ;; Defined at:
  8518 ;;		line 2592 in file "../mla/v2017_03_06/framework/usb/src/usb_device.c"
  8519 ;; Parameters:    Size  Location     Type
  8520 ;;		None
  8521 ;; Auto vars:     Size  Location     Type
  8522 ;;  lastDTS         1   17[COMRAM] unsigned char 
  8523 ;; Return value:  Size  Location     Type
  8524 ;;                  1    wreg      void 
  8525 ;; Registers used:
  8526 ;;		wreg, fsr1l, fsr1h, fsr2l, fsr2h, status,2, status,0, pclath, tosl, tblptrl, tblptrh, tblptru, cstack
  8527 ;; Tracked objects:
  8528 ;;		On entry : 0/0
  8529 ;;		On exit  : 0/0
  8530 ;;		Unchanged: 0/0
  8531 ;; Data sizes:     COMRAM   BANK0   BANK1   BANK2   BANK3   BANK4   BANK5   BANK6   BANK7
  8532 ;;      Params:         0       0       0       0       0       0       0       0       0
  8533 ;;      Locals:         1       0       0       0       0       0       0       0       0
  8534 ;;      Temps:          0       0       0       0       0       0       0       0       0
  8535 ;;      Totals:         1       0       0       0       0       0       0       0       0
  8536 ;;Total ram usage:        1 bytes
  8537 ;; Hardware stack levels used:    1
  8538 ;; Hardware stack levels required when called:    2
  8539 ;; This function calls:
  8540 ;;		_USART_mySetLineCodingHandler
  8541 ;;		_USBCtrlTrfTxService
  8542 ;; This function is called by:
  8543 ;;		_USBCtrlEPService
  8544 ;; This function uses a non-reentrant model
  8545 ;;
  8546                           
  8547                           	psect	text42
  8548  00152A                     __ptext42:
  8549                           	opt stack 0
  8550  00152A                     _USBCtrlTrfInHandler:
  8551                           	opt stack 20
  8552                           
  8553                           ;usb_device.c: 2594: uint8_t lastDTS;
  8554                           ;usb_device.c: 2596: lastDTS = pBDTEntryIn[0]->STAT.DTS;
  8555                           
  8556                           ;incstack = 0
  8557  00152A  C06E  FFD9         	movff	_pBDTEntryIn,fsr2l
  8558  00152E  C06F  FFDA         	movff	_pBDTEntryIn+1,fsr2h
  8559  001532  0100               	movlb	0	; () banked
  8560  001534  0E00               	movlw	0
  8561  001536  BCDF               	btfsc	indf2,6,c
  8562  001538  0E01               	movlw	1
  8563  00153A  6E3E               	movwf	USBCtrlTrfInHandler@lastDTS,c
  8564                           
  8565                           ; BSR set to: 0
  8566                           ;usb_device.c: 2599: pBDTEntryIn[0] = (volatile BDT_ENTRY*)(((uintptr_t)pBDTEntryIn[0]) 
      +                          ^ 0x0004);
  8567  00153C  0E04               	movlw	4
  8568  00153E  0100               	movlb	0	; () banked
  8569  001540  196E               	xorwf	_pBDTEntryIn& (0+255),w,b
  8570  001542  0100               	movlb	0	; () banked
  8571  001544  6F6E               	movwf	_pBDTEntryIn& (0+255),b
  8572  001546  0100               	movlb	0	; () banked
  8573  001548  516F               	movf	(_pBDTEntryIn+1)& (0+255),w,b
  8574  00154A  0100               	movlb	0	; () banked
  8575  00154C  6F6F               	movwf	(_pBDTEntryIn+1)& (0+255),b
  8576                           
  8577                           ; BSR set to: 0
  8578                           ;usb_device.c: 2604: if(USBDeviceState == ADR_PENDING_STATE)
  8579  00154E  0E08               	movlw	8
  8580  001550  1828               	xorwf	_USBDeviceState,w,c	;volatile
  8581  001552  A4D8               	btfss	status,2,c
  8582  001554  D00B               	goto	i2l3466
  8583                           
  8584                           ; BSR set to: 0
  8585                           ;usb_device.c: 2605: {
  8586                           ;usb_device.c: 2606: UADDR = (SetupPkt.bDevADR & 0x7F);
  8587  001556  0104               	movlb	4	; () banked
  8588  001558  5132               	movf	50,w,b	;volatile
  8589  00155A  0B7F               	andlw	127
  8590  00155C  6E6E               	movwf	3950,c	;volatile
  8591                           
  8592                           ; BSR set to: 4
  8593                           ;usb_device.c: 2607: if(UADDR != 0u)
  8594  00155E  506E               	movf	3950,w,c	;volatile
  8595  001560  B4D8               	btfsc	status,2,c
  8596  001562  D002               	goto	i2l3464
  8597                           
  8598                           ; BSR set to: 4
  8599                           ;usb_device.c: 2608: {
  8600                           ;usb_device.c: 2609: USBDeviceState=ADDRESS_STATE;
  8601  001564  0E10               	movlw	16
  8602  001566  D001               	goto	L15
  8603  001568                     i2l3464:
  8604                           
  8605                           ; BSR set to: 4
  8606                           ;usb_device.c: 2611: else
  8607                           ;usb_device.c: 2612: {
  8608                           ;usb_device.c: 2613: USBDeviceState=DEFAULT_STATE;
  8609  001568  0E04               	movlw	4
  8610  00156A                     L15:
  8611  00156A  6E28               	movwf	_USBDeviceState,c	;volatile
  8612  00156C                     i2l3466:
  8613                           
  8614                           ;usb_device.c: 2614: }
  8615                           ;usb_device.c: 2615: }
  8616                           ;usb_device.c: 2618: if(controlTransferState == 1)
  8617  00156C  0426               	decf	_controlTransferState,w,c	;volatile
  8618  00156E  A4D8               	btfss	status,2,c
  8619  001570  D03B               	goto	i2l432
  8620                           
  8621                           ;usb_device.c: 2619: {
  8622                           ;usb_device.c: 2620: pBDTEntryIn[0]->ADR = ((uint16_t)(CtrlTrfData));
  8623  001572  0100               	movlb	0	; () banked
  8624  001574  EE20 F002          	lfsr	2,2
  8625  001578  516E               	movf	_pBDTEntryIn& (0+255),w,b
  8626  00157A  26D9               	addwf	fsr2l,f,c
  8627  00157C  516F               	movf	(_pBDTEntryIn+1)& (0+255),w,b
  8628  00157E  22DA               	addwfc	fsr2h,f,c
  8629  001580  0E38               	movlw	56
  8630  001582  6EDE               	movwf	postinc2,c
  8631  001584  0E04               	movlw	4
  8632  001586  6EDD               	movwf	postdec2,c
  8633                           
  8634                           ; BSR set to: 0
  8635                           ;usb_device.c: 2621: USBCtrlTrfTxService();
  8636  001588  EC74  F00C         	call	_USBCtrlTrfTxService	;wreg free
  8637                           
  8638                           ;usb_device.c: 2627: if(shortPacketStatus == 2)
  8639  00158C  0E02               	movlw	2
  8640  00158E  1827               	xorwf	_shortPacketStatus,w,c	;volatile
  8641  001590  A4D8               	btfss	status,2,c
  8642  001592  D00D               	goto	i2l3478
  8643                           
  8644                           ;usb_device.c: 2628: {
  8645                           ;usb_device.c: 2631: pBDTEntryIn[0]->STAT.Val = 0x04;
  8646  001594  C06E  FFD9         	movff	_pBDTEntryIn,fsr2l
  8647  001598  C06F  FFDA         	movff	_pBDTEntryIn+1,fsr2h
  8648  00159C  0E04               	movlw	4
  8649  00159E  6EDF               	movwf	indf2,c
  8650                           
  8651                           ;usb_device.c: 2632: pBDTEntryIn[0]->STAT.Val |= 0x80;
  8652  0015A0  C06E  FFD9         	movff	_pBDTEntryIn,fsr2l
  8653  0015A4  C06F  FFDA         	movff	_pBDTEntryIn+1,fsr2h
  8654  0015A8  0E00               	movlw	0
  8655  0015AA  8EDB               	bsf	plusw2,7,c
  8656                           
  8657                           ;usb_device.c: 2633: }
  8658  0015AC  0012               	return	
  8659  0015AE                     i2l3478:
  8660                           
  8661                           ;usb_device.c: 2634: else
  8662                           ;usb_device.c: 2635: {
  8663                           ;usb_device.c: 2636: if(lastDTS == 0)
  8664  0015AE  503E               	movf	USBCtrlTrfInHandler@lastDTS,w,c
  8665  0015B0  A4D8               	btfss	status,2,c
  8666  0015B2  D00D               	goto	i2l3484
  8667                           
  8668                           ;usb_device.c: 2637: {
  8669                           ;usb_device.c: 2638: pBDTEntryIn[0]->STAT.Val = 0x40|(0x08 & 0x08);
  8670  0015B4  C06E  FFD9         	movff	_pBDTEntryIn,fsr2l
  8671  0015B8  C06F  FFDA         	movff	_pBDTEntryIn+1,fsr2h
  8672  0015BC  0E48               	movlw	72
  8673  0015BE  6EDF               	movwf	indf2,c
  8674                           
  8675                           ;usb_device.c: 2639: pBDTEntryIn[0]->STAT.Val |= 0x80;
  8676  0015C0  C06E  FFD9         	movff	_pBDTEntryIn,fsr2l
  8677  0015C4  C06F  FFDA         	movff	_pBDTEntryIn+1,fsr2h
  8678  0015C8  0E00               	movlw	0
  8679  0015CA  8EDB               	bsf	plusw2,7,c
  8680                           
  8681                           ;usb_device.c: 2640: }
  8682  0015CC  0012               	return	
  8683  0015CE                     i2l3484:
  8684                           
  8685                           ;usb_device.c: 2641: else
  8686                           ;usb_device.c: 2642: {
  8687                           ;usb_device.c: 2643: pBDTEntryIn[0]->STAT.Val = 0x00|(0x08 & 0x08);
  8688  0015CE  C06E  FFD9         	movff	_pBDTEntryIn,fsr2l
  8689  0015D2  C06F  FFDA         	movff	_pBDTEntryIn+1,fsr2h
  8690  0015D6  0E08               	movlw	8
  8691  0015D8  6EDF               	movwf	indf2,c
  8692                           
  8693                           ;usb_device.c: 2644: pBDTEntryIn[0]->STAT.Val |= 0x80;
  8694  0015DA  C06E  FFD9         	movff	_pBDTEntryIn,fsr2l
  8695  0015DE  C06F  FFDA         	movff	_pBDTEntryIn+1,fsr2h
  8696  0015E2  0E00               	movlw	0
  8697  0015E4  8EDB               	bsf	plusw2,7,c
  8698                           
  8699                           ;usb_device.c: 2645: }
  8700                           ;usb_device.c: 2646: }
  8701                           ;usb_device.c: 2647: }
  8702  0015E6  0012               	return	
  8703  0015E8                     i2l432:
  8704                           
  8705                           ;usb_device.c: 2648: else
  8706                           ;usb_device.c: 2649: {
  8707                           ;usb_device.c: 2653: if(outPipes[0].info.bits.busy == 1)
  8708  0015E8  0100               	movlb	0	; () banked
  8709  0015EA  AF63               	btfss	(_outPipes+3)& (0+255),7,b	;volatile
  8710  0015EC  D016               	goto	i2l3494
  8711                           
  8712                           ; BSR set to: 0
  8713                           ;usb_device.c: 2654: {
  8714                           ;usb_device.c: 2655: if(outPipes[0].pFunc != (0))
  8715  0015EE  0100               	movlb	0	; () banked
  8716  0015F0  5166               	movf	(_outPipes+6)& (0+255),w,b	;volatile
  8717  0015F2  0100               	movlb	0	; () banked
  8718  0015F4  1167               	iorwf	(_outPipes+7)& (0+255),w,b	;volatile
  8719  0015F6  B4D8               	btfsc	status,2,c
  8720  0015F8  D00E               	goto	i2l3492
  8721                           
  8722                           ; BSR set to: 0
  8723                           ;usb_device.c: 2656: {
  8724                           ;usb_device.c: 2657: outPipes[0].pFunc();
  8725  0015FA  EE20  F066         	lfsr	2,_outPipes+6	;volatile
  8726  0015FE  D801               	call	i2u270_48
  8727  001600  D00A               	goto	i2l3492
  8728  001602                     i2u270_48:
  8729  001602  0005               	push	
  8730  001604  6EFA               	movwf	pclath,c
  8731  001606  50DE               	movf	postinc2,w,c
  8732  001608  6EFD               	movwf	tosl,c
  8733  00160A  50DE               	movf	postinc2,w,c
  8734  00160C  6EFE               	movwf	tosh,c
  8735  00160E  50F8               	movf	tblptru,w,c
  8736  001610  6EFF               	movwf	tosu,c
  8737  001612  50FA               	movf	pclath,w,c
  8738  001614  0012               	return		;indir
  8739  001616                     i2l3492:
  8740                           
  8741                           ;usb_device.c: 2658: }
  8742                           ;usb_device.c: 2659: outPipes[0].info.bits.busy = 0;
  8743  001616  0100               	movlb	0	; () banked
  8744  001618  9F63               	bcf	(_outPipes+3)& (0+255),7,b	;volatile
  8745  00161A                     i2l3494:
  8746                           
  8747                           ; BSR set to: 0
  8748                           ;usb_device.c: 2660: }
  8749                           ;usb_device.c: 2662: controlTransferState = 0;
  8750  00161A  0E00               	movlw	0
  8751  00161C  6E26               	movwf	_controlTransferState,c	;volatile
  8752  00161E  0012               	return	
  8753  001620                     __end_of_USBCtrlTrfInHandler:
  8754                           	opt stack 0
  8755                           tosu	equ	0xFFF
  8756                           tosh	equ	0xFFE
  8757                           tosl	equ	0xFFD
  8758                           pclatu	equ	0xFFB
  8759                           pclath	equ	0xFFA
  8760                           tblptru	equ	0xFF8
  8761                           tblptrh	equ	0xFF7
  8762                           tblptrl	equ	0xFF6
  8763                           tablat	equ	0xFF5
  8764                           prodh	equ	0xFF4
  8765                           prodl	equ	0xFF3
  8766                           intcon	equ	0xFF2
  8767                           postinc0	equ	0xFEE
  8768                           fsr0h	equ	0xFEA
  8769                           fsr0l	equ	0xFE9
  8770                           wreg	equ	0xFE8
  8771                           indf1	equ	0xFE7
  8772                           fsr1h	equ	0xFE2
  8773                           fsr1l	equ	0xFE1
  8774                           bsr	equ	0xFE0
  8775                           indf2	equ	0xFDF
  8776                           postinc2	equ	0xFDE
  8777                           postdec2	equ	0xFDD
  8778                           plusw2	equ	0xFDB
  8779                           fsr2h	equ	0xFDA
  8780                           fsr2l	equ	0xFD9
  8781                           status	equ	0xFD8
  8782                           
  8783 ;; *************** function _USBCtrlTrfTxService *****************
  8784 ;; Defined at:
  8785 ;;		line 1771 in file "../mla/v2017_03_06/framework/usb/src/usb_device.c"
  8786 ;; Parameters:    Size  Location     Type
  8787 ;;		None
  8788 ;; Auto vars:     Size  Location     Type
  8789 ;;  byteToSend      1    0[COMRAM] unsigned char 
  8790 ;; Return value:  Size  Location     Type
  8791 ;;                  1    wreg      void 
  8792 ;; Registers used:
  8793 ;;		wreg, fsr1l, fsr1h, fsr2l, fsr2h, status,2, status,0, tblptrl, tblptrh, tblptru
  8794 ;; Tracked objects:
  8795 ;;		On entry : 0/0
  8796 ;;		On exit  : 0/0
  8797 ;;		Unchanged: 0/0
  8798 ;; Data sizes:     COMRAM   BANK0   BANK1   BANK2   BANK3   BANK4   BANK5   BANK6   BANK7
  8799 ;;      Params:         0       0       0       0       0       0       0       0       0
  8800 ;;      Locals:         1       0       0       0       0       0       0       0       0
  8801 ;;      Temps:          0       0       0       0       0       0       0       0       0
  8802 ;;      Totals:         1       0       0       0       0       0       0       0       0
  8803 ;;Total ram usage:        1 bytes
  8804 ;; Hardware stack levels used:    1
  8805 ;; This function calls:
  8806 ;;		Nothing
  8807 ;; This function is called by:
  8808 ;;		_USBCtrlEPAllowDataStage
  8809 ;;		_USBCtrlTrfInHandler
  8810 ;; This function uses a non-reentrant model
  8811 ;;
  8812                           
  8813                           	psect	text43
  8814  0018E8                     __ptext43:
  8815                           	opt stack 0
  8816  0018E8                     _USBCtrlTrfTxService:
  8817                           	opt stack 19
  8818                           
  8819                           ;usb_device.c: 1773: uint8_t byteToSend;
  8820                           ;usb_device.c: 1777: byteToSend = 8;
  8821                           
  8822                           ;incstack = 0
  8823  0018E8  0E08               	movlw	8
  8824  0018EA  6E2D               	movwf	USBCtrlTrfTxService@byteToSend,c
  8825                           
  8826                           ;usb_device.c: 1778: if(inPipes[0].wCount.Val < (uint8_t)8)
  8827  0018EC  0100               	movlb	0	; () banked
  8828  0018EE  516D               	movf	(_inPipes+5)& (0+255),w,b	;volatile
  8829  0018F0  E111               	bnz	i2l2926
  8830  0018F2  0E08               	movlw	8
  8831  0018F4  0100               	movlb	0	; () banked
  8832  0018F6  5D6C               	subwf	(_inPipes+4)& (0+255),w,b	;volatile
  8833  0018F8  B0D8               	btfsc	status,0,c
  8834  0018FA  D00C               	goto	i2l2926
  8835                           
  8836                           ; BSR set to: 0
  8837                           ;usb_device.c: 1779: {
  8838                           ;usb_device.c: 1780: byteToSend = inPipes[0].wCount.Val;
  8839  0018FC  C06C  F02D         	movff	_inPipes+4,USBCtrlTrfTxService@byteToSend	;volatile
  8840                           
  8841                           ; BSR set to: 0
  8842                           ;usb_device.c: 1787: if(shortPacketStatus == 0)
  8843  001900  5027               	movf	_shortPacketStatus,w,c	;volatile
  8844  001902  A4D8               	btfss	status,2,c
  8845  001904  D002               	goto	i2l2922
  8846                           
  8847                           ; BSR set to: 0
  8848                           ;usb_device.c: 1788: {
  8849                           ;usb_device.c: 1789: shortPacketStatus = 1;
  8850  001906  0E01               	movlw	1
  8851  001908  D004               	goto	L16
  8852  00190A                     i2l2922:
  8853                           
  8854                           ; BSR set to: 0
  8855                           ;usb_device.c: 1791: else if(shortPacketStatus == 1)
  8856  00190A  0427               	decf	_shortPacketStatus,w,c	;volatile
  8857  00190C  A4D8               	btfss	status,2,c
  8858  00190E  D002               	goto	i2l2926
  8859                           
  8860                           ; BSR set to: 0
  8861                           ;usb_device.c: 1792: {
  8862                           ;usb_device.c: 1793: shortPacketStatus = 2;
  8863  001910  0E02               	movlw	2
  8864  001912                     L16:
  8865  001912  6E27               	movwf	_shortPacketStatus,c	;volatile
  8866  001914                     i2l2926:
  8867                           
  8868                           ; BSR set to: 0
  8869                           ;usb_device.c: 1794: }
  8870                           ;usb_device.c: 1795: }
  8871                           ;usb_device.c: 1799: inPipes[0].wCount.Val -= byteToSend;
  8872  001914  502D               	movf	USBCtrlTrfTxService@byteToSend,w,c
  8873  001916  0100               	movlb	0	; () banked
  8874  001918  5F6C               	subwf	(_inPipes+4)& (0+255),f,b	;volatile
  8875  00191A  0E00               	movlw	0
  8876  00191C  5B6D               	subwfb	(_inPipes+5)& (0+255),f,b	;volatile
  8877                           
  8878                           ; BSR set to: 0
  8879                           ;usb_device.c: 1804: pBDTEntryIn[0]->CNT = byteToSend;
  8880  00191E  0100               	movlb	0	; () banked
  8881  001920  EE20 F001          	lfsr	2,1
  8882  001924  516E               	movf	_pBDTEntryIn& (0+255),w,b
  8883  001926  26D9               	addwf	fsr2l,f,c
  8884  001928  516F               	movf	(_pBDTEntryIn+1)& (0+255),w,b
  8885  00192A  22DA               	addwfc	fsr2h,f,c
  8886  00192C  C02D  FFDF         	movff	USBCtrlTrfTxService@byteToSend,indf2
  8887                           
  8888                           ; BSR set to: 0
  8889                           ;usb_device.c: 1808: pDst = (volatile uint8_t*)CtrlTrfData;
  8890  001930  0E38               	movlw	56
  8891  001932  6E0D               	movwf	_pDst,c
  8892  001934  0E04               	movlw	4
  8893  001936  6E0E               	movwf	_pDst+1,c
  8894                           
  8895                           ; BSR set to: 0
  8896                           ;usb_device.c: 1809: if(inPipes[0].info.bits.ctrl_trf_mem == 0x00)
  8897  001938  0100               	movlb	0	; () banked
  8898  00193A  A16B               	btfss	(_inPipes+3)& (0+255),0,b	;volatile
  8899  00193C  D01C               	goto	i2l2944
  8900  00193E  D03A               	goto	i2l2954
  8901  001940                     i2l2936:
  8902                           
  8903                           ; BSR set to: 0
  8904                           ;usb_device.c: 1812: {
  8905                           ;usb_device.c: 1813: *pDst++ = *inPipes[0].pSrc.bRom++;
  8906  001940  C068  FFF6         	movff	_inPipes,tblptrl	;volatile
  8907  001944  C069  FFF7         	movff	_inPipes+1,tblptrh	;volatile
  8908  001948  6AF8               	clrf	tblptru,c
  8909  00194A  C00D  FFD9         	movff	_pDst,fsr2l
  8910  00194E  C00E  FFDA         	movff	_pDst+1,fsr2h
  8911  001952  0E07               	movlw	(high __ramtop+-1)
  8912  001954  64F7               	cpfsgt	tblptrh,c
  8913  001956  D003               	bra	i2u196_47
  8914  001958  0008               	tblrd		*
  8915  00195A  50F5               	movf	tablat,w,c
  8916  00195C  D005               	bra	i2u196_40
  8917  00195E                     i2u196_47:
  8918  00195E  CFF6 FFE1          	movff	tblptrl,fsr1l
  8919  001962  CFF7 FFE2          	movff	tblptrh,fsr1h
  8920  001966  50E7               	movf	indf1,w,c
  8921  001968                     i2u196_40:
  8922  001968  6EDF               	movwf	indf2,c
  8923  00196A  0100               	movlb	0	; () banked
  8924  00196C  4B68               	infsnz	_inPipes& (0+255),f,b	;volatile
  8925  00196E  2B69               	incf	(_inPipes+1)& (0+255),f,b	;volatile
  8926                           
  8927                           ; BSR set to: 0
  8928  001970  4A0D               	infsnz	_pDst,f,c
  8929  001972  2A0E               	incf	_pDst+1,f,c
  8930                           
  8931                           ; BSR set to: 0
  8932                           ;usb_device.c: 1814: byteToSend--;
  8933  001974  062D               	decf	USBCtrlTrfTxService@byteToSend,f,c
  8934  001976                     i2l2944:
  8935                           
  8936                           ; BSR set to: 0
  8937  001976  502D               	movf	USBCtrlTrfTxService@byteToSend,w,c
  8938  001978  B4D8               	btfsc	status,2,c
  8939  00197A  0012               	return	
  8940  00197C  D7E1               	goto	i2l2936
  8941  00197E                     i2l2946:
  8942                           
  8943                           ; BSR set to: 0
  8944                           ;usb_device.c: 1820: {
  8945                           ;usb_device.c: 1821: *pDst++ = *inPipes[0].pSrc.bRam++;
  8946  00197E  C068  FFF6         	movff	_inPipes,tblptrl	;volatile
  8947  001982  C069  FFF7         	movff	_inPipes+1,tblptrh	;volatile
  8948  001986  6AF8               	clrf	tblptru,c
  8949  001988  C00D  FFD9         	movff	_pDst,fsr2l
  8950  00198C  C00E  FFDA         	movff	_pDst+1,fsr2h
  8951  001990  0E07               	movlw	(high __ramtop+-1)
  8952  001992  64F7               	cpfsgt	tblptrh,c
  8953  001994  D003               	bra	i2u198_47
  8954  001996  0008               	tblrd		*
  8955  001998  50F5               	movf	tablat,w,c
  8956  00199A  D005               	bra	i2u198_40
  8957  00199C                     i2u198_47:
  8958  00199C  CFF6 FFE1          	movff	tblptrl,fsr1l
  8959  0019A0  CFF7 FFE2          	movff	tblptrh,fsr1h
  8960  0019A4  50E7               	movf	indf1,w,c
  8961  0019A6                     i2u198_40:
  8962  0019A6  6EDF               	movwf	indf2,c
  8963  0019A8  0100               	movlb	0	; () banked
  8964  0019AA  4B68               	infsnz	_inPipes& (0+255),f,b	;volatile
  8965  0019AC  2B69               	incf	(_inPipes+1)& (0+255),f,b	;volatile
  8966                           
  8967                           ; BSR set to: 0
  8968  0019AE  4A0D               	infsnz	_pDst,f,c
  8969  0019B0  2A0E               	incf	_pDst+1,f,c
  8970                           
  8971                           ; BSR set to: 0
  8972                           ;usb_device.c: 1822: byteToSend--;
  8973  0019B2  062D               	decf	USBCtrlTrfTxService@byteToSend,f,c
  8974  0019B4                     i2l2954:
  8975                           
  8976                           ; BSR set to: 0
  8977  0019B4  502D               	movf	USBCtrlTrfTxService@byteToSend,w,c
  8978  0019B6  B4D8               	btfsc	status,2,c
  8979  0019B8  0012               	return	
  8980  0019BA  D7E1               	goto	i2l2946
  8981  0019BC                     __end_of_USBCtrlTrfTxService:
  8982                           	opt stack 0
  8983                           tosu	equ	0xFFF
  8984                           tosh	equ	0xFFE
  8985                           tosl	equ	0xFFD
  8986                           pclatu	equ	0xFFB
  8987                           pclath	equ	0xFFA
  8988                           tblptru	equ	0xFF8
  8989                           tblptrh	equ	0xFF7
  8990                           tblptrl	equ	0xFF6
  8991                           tablat	equ	0xFF5
  8992                           prodh	equ	0xFF4
  8993                           prodl	equ	0xFF3
  8994                           intcon	equ	0xFF2
  8995                           postinc0	equ	0xFEE
  8996                           fsr0h	equ	0xFEA
  8997                           fsr0l	equ	0xFE9
  8998                           wreg	equ	0xFE8
  8999                           indf1	equ	0xFE7
  9000                           fsr1h	equ	0xFE2
  9001                           fsr1l	equ	0xFE1
  9002                           bsr	equ	0xFE0
  9003                           indf2	equ	0xFDF
  9004                           postinc2	equ	0xFDE
  9005                           postdec2	equ	0xFDD
  9006                           plusw2	equ	0xFDB
  9007                           fsr2h	equ	0xFDA
  9008                           fsr2l	equ	0xFD9
  9009                           status	equ	0xFD8
  9010                           
  9011 ;; *************** function _USART_mySetLineCodingHandler *****************
  9012 ;; Defined at:
  9013 ;;		line 112 in file "../mla/v2017_03_06/framework/usb/src/usart.c"
  9014 ;; Parameters:    Size  Location     Type
  9015 ;;		None
  9016 ;; Auto vars:     Size  Location     Type
  9017 ;;  dwBaud          4   13[COMRAM] unsigned long 
  9018 ;; Return value:  Size  Location     Type
  9019 ;;                  1    wreg      void 
  9020 ;; Registers used:
  9021 ;;		wreg, status,2, status,0, cstack
  9022 ;; Tracked objects:
  9023 ;;		On entry : 0/0
  9024 ;;		On exit  : 0/0
  9025 ;;		Unchanged: 0/0
  9026 ;; Data sizes:     COMRAM   BANK0   BANK1   BANK2   BANK3   BANK4   BANK5   BANK6   BANK7
  9027 ;;      Params:         0       0       0       0       0       0       0       0       0
  9028 ;;      Locals:         4       0       0       0       0       0       0       0       0
  9029 ;;      Temps:          0       0       0       0       0       0       0       0       0
  9030 ;;      Totals:         4       0       0       0       0       0       0       0       0
  9031 ;;Total ram usage:        4 bytes
  9032 ;; Hardware stack levels used:    1
  9033 ;; Hardware stack levels required when called:    1
  9034 ;; This function calls:
  9035 ;;		_USART_Initialize
  9036 ;;		___lldiv
  9037 ;; This function is called by:
  9038 ;;		_USBCheckCDCRequest
  9039 ;;		_USBCtrlTrfRxService
  9040 ;;		_USBCtrlTrfInHandler
  9041 ;; This function uses a non-reentrant model
  9042 ;;
  9043                           
  9044                           	psect	text44
  9045  00227C                     __ptext44:
  9046                           	opt stack 0
  9047  00227C                     _USART_mySetLineCodingHandler:
  9048                           	opt stack 19
  9049                           
  9050                           ;usart.c: 115: {line_coding.dwDTERate=cdc_notice.GetLineCoding.dwDTERate;};
  9051                           
  9052                           ; BSR set to: 0
  9053                           ;incstack = 0
  9054  00227C  C0C9  F0DB         	movff	_cdc_notice,_line_coding
  9055  002280  C0CA  F0DC         	movff	_cdc_notice+1,_line_coding+1
  9056  002284  C0CB  F0DD         	movff	_cdc_notice+2,_line_coding+2
  9057  002288  C0CC  F0DE         	movff	_cdc_notice+3,_line_coding+3
  9058                           
  9059                           ;usart.c: 119: uint32_t dwBaud;
  9060                           ;usart.c: 120: dwBaud = ((24000000/64) / line_coding.dwDTERate) - 1;
  9061  00228C  0ED8               	movlw	216
  9062  00228E  6E2D               	movwf	___lldiv@dividend,c
  9063  002290  0EB8               	movlw	184
  9064  002292  6E2E               	movwf	___lldiv@dividend+1,c
  9065  002294  0E05               	movlw	5
  9066  002296  6E2F               	movwf	___lldiv@dividend+2,c
  9067  002298  0E00               	movlw	0
  9068  00229A  6E30               	movwf	___lldiv@dividend+3,c
  9069  00229C  C0DB  F031         	movff	_line_coding,___lldiv@divisor
  9070  0022A0  C0DC  F032         	movff	_line_coding+1,___lldiv@divisor+1
  9071  0022A4  C0DD  F033         	movff	_line_coding+2,___lldiv@divisor+2
  9072  0022A8  C0DE  F034         	movff	_line_coding+3,___lldiv@divisor+3
  9073  0022AC  ECFC  F00F         	call	___lldiv	;wreg free
  9074  0022B0  0EFF               	movlw	255
  9075  0022B2  242D               	addwf	?___lldiv,w,c
  9076  0022B4  6E3A               	movwf	USART_mySetLineCodingHandler@dwBaud,c
  9077  0022B6  0EFF               	movlw	255
  9078  0022B8  202E               	addwfc	?___lldiv+1,w,c
  9079  0022BA  6E3B               	movwf	USART_mySetLineCodingHandler@dwBaud+1,c
  9080  0022BC  0EFF               	movlw	255
  9081  0022BE  202F               	addwfc	?___lldiv+2,w,c
  9082  0022C0  6E3C               	movwf	USART_mySetLineCodingHandler@dwBaud+2,c
  9083  0022C2  0EFF               	movlw	255
  9084  0022C4  2030               	addwfc	?___lldiv+3,w,c
  9085  0022C6  6E3D               	movwf	USART_mySetLineCodingHandler@dwBaud+3,c
  9086                           
  9087                           ;usart.c: 121: SPBRG = (uint8_t) dwBaud;
  9088  0022C8  C03A  FFAF         	movff	USART_mySetLineCodingHandler@dwBaud,4015	;volatile
  9089                           
  9090                           ;usart.c: 122: SPBRGH = (uint8_t)((uint16_t) (dwBaud >> 8));
  9091  0022CC  C03B  FFB0         	movff	USART_mySetLineCodingHandler@dwBaud+1,4016	;volatile
  9092                           
  9093                           ;usart.c: 125: USART_Initialize();
  9094  0022D0  ECA7  F012         	call	_USART_Initialize	;wreg free
  9095  0022D4  0012               	return		;funcret
  9096  0022D6                     __end_of_USART_mySetLineCodingHandler:
  9097                           	opt stack 0
  9098                           tosu	equ	0xFFF
  9099                           tosh	equ	0xFFE
  9100                           tosl	equ	0xFFD
  9101                           pclatu	equ	0xFFB
  9102                           pclath	equ	0xFFA
  9103                           tblptru	equ	0xFF8
  9104                           tblptrh	equ	0xFF7
  9105                           tblptrl	equ	0xFF6
  9106                           tablat	equ	0xFF5
  9107                           prodh	equ	0xFF4
  9108                           prodl	equ	0xFF3
  9109                           intcon	equ	0xFF2
  9110                           postinc0	equ	0xFEE
  9111                           fsr0h	equ	0xFEA
  9112                           fsr0l	equ	0xFE9
  9113                           wreg	equ	0xFE8
  9114                           indf1	equ	0xFE7
  9115                           fsr1h	equ	0xFE2
  9116                           fsr1l	equ	0xFE1
  9117                           bsr	equ	0xFE0
  9118                           indf2	equ	0xFDF
  9119                           postinc2	equ	0xFDE
  9120                           postdec2	equ	0xFDD
  9121                           plusw2	equ	0xFDB
  9122                           fsr2h	equ	0xFDA
  9123                           fsr2l	equ	0xFD9
  9124                           status	equ	0xFD8
  9125                           
  9126 ;; *************** function ___lldiv *****************
  9127 ;; Defined at:
  9128 ;;		line 8 in file "D:\Program Files (x86)\Microchip\xc8\v1.42\sources\common\lldiv.c"
  9129 ;; Parameters:    Size  Location     Type
  9130 ;;  dividend        4    0[COMRAM] unsigned long 
  9131 ;;  divisor         4    4[COMRAM] unsigned long 
  9132 ;; Auto vars:     Size  Location     Type
  9133 ;;  quotient        4    8[COMRAM] unsigned long 
  9134 ;;  counter         1   12[COMRAM] unsigned char 
  9135 ;; Return value:  Size  Location     Type
  9136 ;;                  4    0[COMRAM] unsigned long 
  9137 ;; Registers used:
  9138 ;;		wreg, status,2, status,0
  9139 ;; Tracked objects:
  9140 ;;		On entry : 0/0
  9141 ;;		On exit  : 0/0
  9142 ;;		Unchanged: 0/0
  9143 ;; Data sizes:     COMRAM   BANK0   BANK1   BANK2   BANK3   BANK4   BANK5   BANK6   BANK7
  9144 ;;      Params:         8       0       0       0       0       0       0       0       0
  9145 ;;      Locals:         5       0       0       0       0       0       0       0       0
  9146 ;;      Temps:          0       0       0       0       0       0       0       0       0
  9147 ;;      Totals:        13       0       0       0       0       0       0       0       0
  9148 ;;Total ram usage:       13 bytes
  9149 ;; Hardware stack levels used:    1
  9150 ;; This function calls:
  9151 ;;		Nothing
  9152 ;; This function is called by:
  9153 ;;		_USART_mySetLineCodingHandler
  9154 ;; This function uses a non-reentrant model
  9155 ;;
  9156                           
  9157                           	psect	text45
  9158  001FF8                     __ptext45:
  9159                           	opt stack 0
  9160  001FF8                     ___lldiv:
  9161                           	opt stack 19
  9162                           
  9163                           ;incstack = 0
  9164  001FF8  0E00               	movlw	0
  9165  001FFA  6E35               	movwf	___lldiv@quotient,c
  9166  001FFC  0E00               	movlw	0
  9167  001FFE  6E36               	movwf	___lldiv@quotient+1,c
  9168  002000  0E00               	movlw	0
  9169  002002  6E37               	movwf	___lldiv@quotient+2,c
  9170  002004  0E00               	movlw	0
  9171  002006  6E38               	movwf	___lldiv@quotient+3,c
  9172  002008  5031               	movf	___lldiv@divisor,w,c
  9173  00200A  1032               	iorwf	___lldiv@divisor+1,w,c
  9174  00200C  1033               	iorwf	___lldiv@divisor+2,w,c
  9175  00200E  1034               	iorwf	___lldiv@divisor+3,w,c
  9176  002010  B4D8               	btfsc	status,2,c
  9177  002012  D02A               	goto	i2l1052
  9178  002014  0E01               	movlw	1
  9179  002016  6E39               	movwf	___lldiv@counter,c
  9180  002018  D006               	goto	i2l2964
  9181  00201A                     i2l2962:
  9182  00201A  90D8               	bcf	status,0,c
  9183  00201C  3631               	rlcf	___lldiv@divisor,f,c
  9184  00201E  3632               	rlcf	___lldiv@divisor+1,f,c
  9185  002020  3633               	rlcf	___lldiv@divisor+2,f,c
  9186  002022  3634               	rlcf	___lldiv@divisor+3,f,c
  9187  002024  2A39               	incf	___lldiv@counter,f,c
  9188  002026                     i2l2964:
  9189  002026  AE34               	btfss	___lldiv@divisor+3,7,c
  9190  002028  D7F8               	goto	i2l2962
  9191  00202A                     i2l2966:
  9192  00202A  90D8               	bcf	status,0,c
  9193  00202C  3635               	rlcf	___lldiv@quotient,f,c
  9194  00202E  3636               	rlcf	___lldiv@quotient+1,f,c
  9195  002030  3637               	rlcf	___lldiv@quotient+2,f,c
  9196  002032  3638               	rlcf	___lldiv@quotient+3,f,c
  9197  002034  5031               	movf	___lldiv@divisor,w,c
  9198  002036  5C2D               	subwf	___lldiv@dividend,w,c
  9199  002038  5032               	movf	___lldiv@divisor+1,w,c
  9200  00203A  582E               	subwfb	___lldiv@dividend+1,w,c
  9201  00203C  5033               	movf	___lldiv@divisor+2,w,c
  9202  00203E  582F               	subwfb	___lldiv@dividend+2,w,c
  9203  002040  5034               	movf	___lldiv@divisor+3,w,c
  9204  002042  5830               	subwfb	___lldiv@dividend+3,w,c
  9205  002044  A0D8               	btfss	status,0,c
  9206  002046  D009               	goto	i2l2974
  9207  002048  5031               	movf	___lldiv@divisor,w,c
  9208  00204A  5E2D               	subwf	___lldiv@dividend,f,c
  9209  00204C  5032               	movf	___lldiv@divisor+1,w,c
  9210  00204E  5A2E               	subwfb	___lldiv@dividend+1,f,c
  9211  002050  5033               	movf	___lldiv@divisor+2,w,c
  9212  002052  5A2F               	subwfb	___lldiv@dividend+2,f,c
  9213  002054  5034               	movf	___lldiv@divisor+3,w,c
  9214  002056  5A30               	subwfb	___lldiv@dividend+3,f,c
  9215  002058  8035               	bsf	___lldiv@quotient,0,c
  9216  00205A                     i2l2974:
  9217  00205A  90D8               	bcf	status,0,c
  9218  00205C  3234               	rrcf	___lldiv@divisor+3,f,c
  9219  00205E  3233               	rrcf	___lldiv@divisor+2,f,c
  9220  002060  3232               	rrcf	___lldiv@divisor+1,f,c
  9221  002062  3231               	rrcf	___lldiv@divisor,f,c
  9222  002064  2E39               	decfsz	___lldiv@counter,f,c
  9223  002066  D7E1               	goto	i2l2966
  9224  002068                     i2l1052:
  9225  002068  C035  F02D         	movff	___lldiv@quotient,?___lldiv
  9226  00206C  C036  F02E         	movff	___lldiv@quotient+1,?___lldiv+1
  9227  002070  C037  F02F         	movff	___lldiv@quotient+2,?___lldiv+2
  9228  002074  C038  F030         	movff	___lldiv@quotient+3,?___lldiv+3
  9229  002078  0012               	return		;funcret
  9230  00207A                     __end_of___lldiv:
  9231                           	opt stack 0
  9232                           tosu	equ	0xFFF
  9233                           tosh	equ	0xFFE
  9234                           tosl	equ	0xFFD
  9235                           pclatu	equ	0xFFB
  9236                           pclath	equ	0xFFA
  9237                           tblptru	equ	0xFF8
  9238                           tblptrh	equ	0xFF7
  9239                           tblptrl	equ	0xFF6
  9240                           tablat	equ	0xFF5
  9241                           prodh	equ	0xFF4
  9242                           prodl	equ	0xFF3
  9243                           intcon	equ	0xFF2
  9244                           postinc0	equ	0xFEE
  9245                           fsr0h	equ	0xFEA
  9246                           fsr0l	equ	0xFE9
  9247                           wreg	equ	0xFE8
  9248                           indf1	equ	0xFE7
  9249                           fsr1h	equ	0xFE2
  9250                           fsr1l	equ	0xFE1
  9251                           bsr	equ	0xFE0
  9252                           indf2	equ	0xFDF
  9253                           postinc2	equ	0xFDE
  9254                           postdec2	equ	0xFDD
  9255                           plusw2	equ	0xFDB
  9256                           fsr2h	equ	0xFDA
  9257                           fsr2l	equ	0xFD9
  9258                           status	equ	0xFD8
  9259                           
  9260 ;; *************** function _USART_Initialize *****************
  9261 ;; Defined at:
  9262 ;;		line 46 in file "../mla/v2017_03_06/framework/usb/src/usart.c"
  9263 ;; Parameters:    Size  Location     Type
  9264 ;;		None
  9265 ;; Auto vars:     Size  Location     Type
  9266 ;;  c               1    0[COMRAM] unsigned char 
  9267 ;; Return value:  Size  Location     Type
  9268 ;;                  1    wreg      void 
  9269 ;; Registers used:
  9270 ;;		None
  9271 ;; Tracked objects:
  9272 ;;		On entry : 0/0
  9273 ;;		On exit  : 0/0
  9274 ;;		Unchanged: 0/0
  9275 ;; Data sizes:     COMRAM   BANK0   BANK1   BANK2   BANK3   BANK4   BANK5   BANK6   BANK7
  9276 ;;      Params:         0       0       0       0       0       0       0       0       0
  9277 ;;      Locals:         1       0       0       0       0       0       0       0       0
  9278 ;;      Temps:          0       0       0       0       0       0       0       0       0
  9279 ;;      Totals:         1       0       0       0       0       0       0       0       0
  9280 ;;Total ram usage:        1 bytes
  9281 ;; Hardware stack levels used:    1
  9282 ;; This function calls:
  9283 ;;		Nothing
  9284 ;; This function is called by:
  9285 ;;		_APP_DeviceCDCEmulatorInitialize
  9286 ;;		_USART_mySetLineCodingHandler
  9287 ;; This function uses a non-reentrant model
  9288 ;;
  9289                           
  9290                           	psect	text46
  9291  00254E                     __ptext46:
  9292                           	opt stack 0
  9293  00254E                     _USART_Initialize:
  9294                           	opt stack 21
  9295                           
  9296                           ;usart.c: 48: unsigned char c;
  9297                           ;usart.c: 51: TXSTAbits.TX9 = 0;
  9298                           
  9299                           ;incstack = 0
  9300  00254E  9CAC               	bcf	4012,6,c	;volatile
  9301                           
  9302                           ;usart.c: 52: TXSTAbits.SYNC = 0;
  9303  002550  98AC               	bcf	4012,4,c	;volatile
  9304                           
  9305                           ;usart.c: 53: TXSTAbits.TXEN = 1;
  9306  002552  8AAC               	bsf	4012,5,c	;volatile
  9307                           
  9308                           ;usart.c: 56: RCSTAbits.RX9 = 0;
  9309  002554  9CAB               	bcf	4011,6,c	;volatile
  9310                           
  9311                           ;usart.c: 57: RCSTAbits.CREN = 1;
  9312  002556  88AB               	bsf	4011,4,c	;volatile
  9313                           
  9314                           ;usart.c: 59: TRISCbits.TRISC7 = 1;
  9315  002558  8E94               	bsf	3988,7,c	;volatile
  9316                           
  9317                           ;usart.c: 60: TRISCbits.TRISC6 = 0;
  9318  00255A  9C94               	bcf	3988,6,c	;volatile
  9319                           
  9320                           ;usart.c: 63: RCSTAbits.SPEN = 1;
  9321  00255C  8EAB               	bsf	4011,7,c	;volatile
  9322                           
  9323                           ;usart.c: 65: c = RCREG;
  9324  00255E  CFAE F02D          	movff	4014,USART_Initialize@c	;volatile
  9325  002562  0012               	return		;funcret
  9326  002564                     __end_of_USART_Initialize:
  9327                           	opt stack 0
  9328                           tosu	equ	0xFFF
  9329                           tosh	equ	0xFFE
  9330                           tosl	equ	0xFFD
  9331                           pclatu	equ	0xFFB
  9332                           pclath	equ	0xFFA
  9333                           tblptru	equ	0xFF8
  9334                           tblptrh	equ	0xFF7
  9335                           tblptrl	equ	0xFF6
  9336                           tablat	equ	0xFF5
  9337                           prodh	equ	0xFF4
  9338                           prodl	equ	0xFF3
  9339                           intcon	equ	0xFF2
  9340                           postinc0	equ	0xFEE
  9341                           fsr0h	equ	0xFEA
  9342                           fsr0l	equ	0xFE9
  9343                           wreg	equ	0xFE8
  9344                           indf1	equ	0xFE7
  9345                           fsr1h	equ	0xFE2
  9346                           fsr1l	equ	0xFE1
  9347                           bsr	equ	0xFE0
  9348                           indf2	equ	0xFDF
  9349                           postinc2	equ	0xFDE
  9350                           postdec2	equ	0xFDD
  9351                           plusw2	equ	0xFDB
  9352                           fsr2h	equ	0xFDA
  9353                           fsr2l	equ	0xFD9
  9354                           status	equ	0xFD8
  9355                           tosu	equ	0xFFF
  9356                           tosh	equ	0xFFE
  9357                           tosl	equ	0xFFD
  9358                           pclatu	equ	0xFFB
  9359                           pclath	equ	0xFFA
  9360                           tblptru	equ	0xFF8
  9361                           tblptrh	equ	0xFF7
  9362                           tblptrl	equ	0xFF6
  9363                           tablat	equ	0xFF5
  9364                           prodh	equ	0xFF4
  9365                           prodl	equ	0xFF3
  9366                           intcon	equ	0xFF2
  9367                           postinc0	equ	0xFEE
  9368                           fsr0h	equ	0xFEA
  9369                           fsr0l	equ	0xFE9
  9370                           wreg	equ	0xFE8
  9371                           indf1	equ	0xFE7
  9372                           fsr1h	equ	0xFE2
  9373                           fsr1l	equ	0xFE1
  9374                           bsr	equ	0xFE0
  9375                           indf2	equ	0xFDF
  9376                           postinc2	equ	0xFDE
  9377                           postdec2	equ	0xFDD
  9378                           plusw2	equ	0xFDB
  9379                           fsr2h	equ	0xFDA
  9380                           fsr2l	equ	0xFD9
  9381                           status	equ	0xFD8
  9382                           
  9383                           	psect	text47
  9384  000000                     __ptext47:
  9385                           	opt stack 0
  9386                           tosu	equ	0xFFF
  9387                           tosh	equ	0xFFE
  9388                           tosl	equ	0xFFD
  9389                           pclatu	equ	0xFFB
  9390                           pclath	equ	0xFFA
  9391                           tblptru	equ	0xFF8
  9392                           tblptrh	equ	0xFF7
  9393                           tblptrl	equ	0xFF6
  9394                           tablat	equ	0xFF5
  9395                           prodh	equ	0xFF4
  9396                           prodl	equ	0xFF3
  9397                           intcon	equ	0xFF2
  9398                           postinc0	equ	0xFEE
  9399                           fsr0h	equ	0xFEA
  9400                           fsr0l	equ	0xFE9
  9401                           wreg	equ	0xFE8
  9402                           indf1	equ	0xFE7
  9403                           fsr1h	equ	0xFE2
  9404                           fsr1l	equ	0xFE1
  9405                           bsr	equ	0xFE0
  9406                           indf2	equ	0xFDF
  9407                           postinc2	equ	0xFDE
  9408                           postdec2	equ	0xFDD
  9409                           plusw2	equ	0xFDB
  9410                           fsr2h	equ	0xFDA
  9411                           fsr2l	equ	0xFD9
  9412                           status	equ	0xFD8
  9413                           
  9414                           	psect	rparam
  9415  0000                     tosu	equ	0xFFF
  9416                           tosh	equ	0xFFE
  9417                           tosl	equ	0xFFD
  9418                           pclatu	equ	0xFFB
  9419                           pclath	equ	0xFFA
  9420                           tblptru	equ	0xFF8
  9421                           tblptrh	equ	0xFF7
  9422                           tblptrl	equ	0xFF6
  9423                           tablat	equ	0xFF5
  9424                           prodh	equ	0xFF4
  9425                           prodl	equ	0xFF3
  9426                           intcon	equ	0xFF2
  9427                           postinc0	equ	0xFEE
  9428                           fsr0h	equ	0xFEA
  9429                           fsr0l	equ	0xFE9
  9430                           wreg	equ	0xFE8
  9431                           indf1	equ	0xFE7
  9432                           fsr1h	equ	0xFE2
  9433                           fsr1l	equ	0xFE1
  9434                           bsr	equ	0xFE0
  9435                           indf2	equ	0xFDF
  9436                           postinc2	equ	0xFDE
  9437                           postdec2	equ	0xFDD
  9438                           plusw2	equ	0xFDB
  9439                           fsr2h	equ	0xFDA
  9440                           fsr2l	equ	0xFD9
  9441                           status	equ	0xFD8
  9442                           
  9443                           	psect	temp
  9444  000058                     btemp:
  9445                           	opt stack 0
  9446  000058                     	ds	1
  9447  0000                     int$flags	set	btemp
  9448                           tosu	equ	0xFFF
  9449                           tosh	equ	0xFFE
  9450                           tosl	equ	0xFFD
  9451                           pclatu	equ	0xFFB
  9452                           pclath	equ	0xFFA
  9453                           tblptru	equ	0xFF8
  9454                           tblptrh	equ	0xFF7
  9455                           tblptrl	equ	0xFF6
  9456                           tablat	equ	0xFF5
  9457                           prodh	equ	0xFF4
  9458                           prodl	equ	0xFF3
  9459                           intcon	equ	0xFF2
  9460                           postinc0	equ	0xFEE
  9461                           fsr0h	equ	0xFEA
  9462                           fsr0l	equ	0xFE9
  9463                           wreg	equ	0xFE8
  9464                           indf1	equ	0xFE7
  9465                           fsr1h	equ	0xFE2
  9466                           fsr1l	equ	0xFE1
  9467                           bsr	equ	0xFE0
  9468                           indf2	equ	0xFDF
  9469                           postinc2	equ	0xFDE
  9470                           postdec2	equ	0xFDD
  9471                           plusw2	equ	0xFDB
  9472                           fsr2h	equ	0xFDA
  9473                           fsr2l	equ	0xFD9
  9474                           status	equ	0xFD8


Data Sizes:
    Strings     0
    Constant    201
    Data        0
    BSS         238
    Persistent  0
    Stack       0

Auto Spaces:
    Space          Size  Autos    Used
    COMRAM           94     43      87
    BANK0           160     17     147
    BANK1           256     15      79
    BANK2           256      0       0
    BANK3           256      0       0
    BANK4           192      0       0
    BANK5           128      0       0
    BANK6           256      0       0
    BANK7           256      0       0

Pointer List with Targets:

    USER_USB_CALLBACK_EVENT_HANDLER@pdata	PTR void  size(2) Largest target is 2047
		 -> RAM(DATA[2047]), USTATcopy(COMRAM[1]), USBActiveConfiguration(COMRAM[1]), NULL(NULL[0]), 
		 -> BDT(BIGRAMl[48]), 

    memset@p1	PTR void  size(2) Largest target is 48
		 -> USBAlternateInterface(COMRAM[2]), BDT(BIGRAMl[48]), UEP1(SFR[1]), 

    memset@p	PTR unsigned char  size(2) Largest target is 48
		 -> USBAlternateInterface(COMRAM[2]), BDT(BIGRAMl[48]), UEP1(SFR[1]), 

    memcpy@d1	PTR void  size(2) Largest target is 8
		 -> SetupPkt(BIGRAMhl[8]), 

    memcpy@d	PTR unsigned char  size(2) Largest target is 8
		 -> SetupPkt(BIGRAMhl[8]), 

    memcpy@s1	PTR const void  size(2) Largest target is 2047
		 -> CtrlTrfData(BIGRAMhl[8]), RAM(DATA[2047]), SetupPkt(BIGRAMhl[8]), 

    memcpy@s	PTR const unsigned char  size(2) Largest target is 2047
		 -> CtrlTrfData(BIGRAMhl[8]), RAM(DATA[2047]), SetupPkt(BIGRAMhl[8]), 

    lastTransmission	PTR void  size(2) Largest target is 0
		 -> NULL(NULL[0]), 

    putUSBUSART@data	PTR unsigned char  size(2) Largest target is 64
		 -> USB_Out_Buffer(BANK0[64]), 

    getsUSBUSART@buffer	PTR unsigned char  size(2) Largest target is 64
		 -> RS232_Out_Data(BANK1[64]), 

    CDCDataInHandle	PTR void  size(2) Largest target is 2047
		 -> RAM(DATA[2047]), NULL(NULL[0]), BDT(BIGRAMl[48]), 

    CDCDataOutHandle	PTR void  size(2) Largest target is 2047
		 -> RAM(DATA[2047]), NULL(NULL[0]), BDT(BIGRAMl[48]), 

    pCDCDst.wRom	PTR const unsigned int  size(2) Largest target is 0

    pCDCDst.bRom	PTR const unsigned char  size(2) Largest target is 0

    pCDCDst.wRam	PTR unsigned int  size(2) Largest target is 0

    pCDCDst.bRam	PTR unsigned char  size(2) Largest target is 0

    S2063_POINTER$wRom	PTR const unsigned int  size(2) Largest target is 0

    pCDCSrc.wRom	PTR const unsigned int  size(2) Largest target is 0

    S2063_POINTER$bRom	PTR const unsigned char  size(2) Largest target is 0

    pCDCSrc.bRom	PTR const unsigned char  size(2) Largest target is 0

    S2063_POINTER$wRam	PTR unsigned int  size(2) Largest target is 0

    pCDCSrc.wRam	PTR unsigned int  size(2) Largest target is 0

    S2063_POINTER$bRam	PTR unsigned char  size(2) Largest target is 0

    pCDCSrc.bRam	PTR unsigned char  size(2) Largest target is 0

    USBStdFeatureReqHandler@pUEP	PTR unsigned char  size(2) Largest target is 1
		 -> UEP0(SFR[1]), 

    USBStdFeatureReqHandler@p	PTR struct __BDT size(2) Largest target is 2047
		 -> RAM(DATA[2047]), NULL(NULL[0]), BDT(BIGRAMl[48]), 

    sp__memcpy	PTR void  size(2) Largest target is 8
		 -> SetupPkt(BIGRAMhl[8]), 

    USBStdGetStatusHandler@p	PTR struct __BDT size(2) Largest target is 2047
		 -> RAM(DATA[2047]), NULL(NULL[0]), BDT(BIGRAMl[48]), 

    pDst	PTR volatile unsigned char  size(2) Largest target is 8
		 -> CtrlTrfData(BIGRAMhl[8]), NULL(NULL[0]), 

    USBConfigureEndpoint@handle	PTR volatile struct __BDT size(2) Largest target is 48
		 -> BDT(BIGRAMl[48]), 

    pBDTEntryEP0OutCurrent	PTR volatile struct __BDT size(2) Largest target is 48
		 -> NULL(NULL[0]), BDT(BIGRAMl[48]), 

    pBDTEntryEP0OutNext	PTR volatile struct __BDT size(2) Largest target is 2047
		 -> RAM(DATA[2047]), NULL(NULL[0]), BDT(BIGRAMl[48]), 

    USBTransferOnePacket@data	PTR unsigned char  size(2) Largest target is 64
		 -> cdc_data_tx(BIGRAMhl[64]), cdc_data_rx(BIGRAMhh[64]), NULL(NULL[0]), 

    sp__USBTransferOnePacket	PTR void  size(2) Largest target is 2047
		 -> RAM(DATA[2047]), NULL(NULL[0]), BDT(BIGRAMl[48]), 

    USBTransferOnePacket@handle	PTR volatile struct __BDT size(2) Largest target is 2047
		 -> RAM(DATA[2047]), NULL(NULL[0]), BDT(BIGRAMl[48]), 

    USBEnableEndpoint@p	PTR unsigned char  size(2) Largest target is 1
		 -> UEP0(SFR[1]), 

    pBDTEntryOut	PTR volatile struct __BDT[3] size(2) Largest target is 2047
		 -> RAM(DATA[2047]), NULL(NULL[0]), BDT(BIGRAMl[48]), 

    pBDTEntryIn	PTR volatile struct __BDT[3] size(2) Largest target is 2047
		 -> RAM(DATA[2047]), NULL(NULL[0]), BDT(BIGRAMl[48]), 

    S376$pFunc	PTR FTN()void  size(2) Largest target is 1
		 -> USART_mySetLineCodingHandler(), 

    outPipes.pFunc	PTR FTN()void  size(2) Largest target is 1
		 -> USART_mySetLineCodingHandler(), 

    S366$wRam	PTR unsigned int  size(2) Largest target is 0

    outPipes.pDst.wRam	PTR unsigned int  size(2) Largest target is 0

    S366$bRam	PTR unsigned char  size(2) Largest target is 0

    outPipes.pDst.bRam	PTR unsigned char  size(2) Largest target is 0

    S342$wRom	PTR const unsigned int  size(2) Largest target is 0

    inPipes.pSrc.wRom	PTR const unsigned int  size(2) Largest target is 0

    S342$wRam	PTR unsigned int  size(2) Largest target is 0

    inPipes.pSrc.wRam	PTR unsigned int  size(2) Largest target is 0

    S342$bRom	PTR const unsigned char  size(2) Largest target is 0

    inPipes.pSrc.bRom	PTR const unsigned char  size(2) Largest target is 0

    S342$bRam	PTR unsigned char  size(2) Largest target is 0

    inPipes.pSrc.bRam	PTR unsigned char  size(2) Largest target is 0

    sp__memset	PTR void  size(2) Largest target is 48
		 -> USBAlternateInterface(COMRAM[2]), BDT(BIGRAMl[48]), UEP1(SFR[1]), 

    USB_SD_Ptr	const PTR const unsigned char [3] size(2) Largest target is 52
		 -> sd002(CODE[52]), sd001(CODE[52]), sd000(CODE[4]), 

    USB_CD_Ptr	const PTR const unsigned char [1] size(2) Largest target is 67
		 -> configDescriptor1(CODE[67]), 


Critical Paths under _main in COMRAM

    None.

Critical Paths under _SYS_InterruptLow in COMRAM

    None.

Critical Paths under _SYS_InterruptHigh in COMRAM

    _SYS_InterruptHigh->_USBDeviceTasks
    _USBDeviceTasks->_USBCtrlEPService
    i2_USBDeviceInit->i2_memset
    _USBWakeFromSuspend->_USER_USB_CALLBACK_EVENT_HANDLER
    _USBSuspend->_USER_USB_CALLBACK_EVENT_HANDLER
    _USBCtrlEPAllowDataStage->_USBCtrlTrfTxService
    _USBCheckStdRequest->_USBStdFeatureReqHandler
    _USBStdSetCfgHandler->_USER_USB_CALLBACK_EVENT_HANDLER
    _USBStdFeatureReqHandler->_USER_USB_CALLBACK_EVENT_HANDLER
    _USER_USB_CALLBACK_EVENT_HANDLER->_APP_DeviceCDCEmulatorInitialize
    _CDCInitEP->_USBEnableEndpoint
    _USBEnableEndpoint->_USBConfigureEndpoint
    _USBCtrlTrfOutHandler->_USBCtrlTrfRxService
    _USBCtrlTrfRxService->_USART_mySetLineCodingHandler
    _USBCtrlTrfInHandler->_USART_mySetLineCodingHandler
    _USART_mySetLineCodingHandler->___lldiv

Critical Paths under _main in BANK0

    None.

Critical Paths under _SYS_InterruptLow in BANK0

    None.

Critical Paths under _SYS_InterruptHigh in BANK0

    None.

Critical Paths under _main in BANK1

    _USBDeviceInit->_memset
    _APP_DeviceCDCEmulatorTasks->_getsUSBUSART
    _getsUSBUSART->_USBTransferOnePacket
    _CDCTxService->_USBTransferOnePacket

Critical Paths under _SYS_InterruptLow in BANK1

    None.

Critical Paths under _SYS_InterruptHigh in BANK1

    None.

Critical Paths under _main in BANK2

    None.

Critical Paths under _SYS_InterruptLow in BANK2

    None.

Critical Paths under _SYS_InterruptHigh in BANK2

    None.

Critical Paths under _main in BANK3

    None.

Critical Paths under _SYS_InterruptLow in BANK3

    None.

Critical Paths under _SYS_InterruptHigh in BANK3

    None.

Critical Paths under _main in BANK4

    None.

Critical Paths under _SYS_InterruptLow in BANK4

    None.

Critical Paths under _SYS_InterruptHigh in BANK4

    None.

Critical Paths under _main in BANK5

    None.

Critical Paths under _SYS_InterruptLow in BANK5

    None.

Critical Paths under _SYS_InterruptHigh in BANK5

    None.

Critical Paths under _main in BANK6

    None.

Critical Paths under _SYS_InterruptLow in BANK6

    None.

Critical Paths under _SYS_InterruptHigh in BANK6

    None.

Critical Paths under _main in BANK7

    None.

Critical Paths under _SYS_InterruptLow in BANK7

    None.

Critical Paths under _SYS_InterruptHigh in BANK7

    None.

Call Graph Tables:

 ---------------------------------------------------------------------------------
 (Depth) Function   	        Calls       Base Space   Used Autos Params    Refs
 ---------------------------------------------------------------------------------
 (0) _main                                                 0     0      0    6202
                        _CDC_Routine
                  _SYSTEM_Initialize
                    _USBDeviceAttach
                      _USBDeviceInit
 ---------------------------------------------------------------------------------
 (1) _USBDeviceInit                                        1     1      0    1361
                                              8 BANK1      1     1      0
                             _memset
 ---------------------------------------------------------------------------------
 (2) _memset                                               8     2      6    1070
                                              0 BANK1      8     2      6
 ---------------------------------------------------------------------------------
 (1) _USBDeviceAttach                                      0     0      0       0
 ---------------------------------------------------------------------------------
 (1) _SYSTEM_Initialize                                    1     1      0      22
                                              0 BANK1      1     1      0
 ---------------------------------------------------------------------------------
 (1) _CDC_Routine                                          0     0      0    4819
         _APP_DeviceCDCEmulatorTasks
 ---------------------------------------------------------------------------------
 (2) _APP_DeviceCDCEmulatorTasks                           0     0      0    4819
                       _CDCTxService
                    _USART_getcUSART
                    _USART_putcUSART
                       _getsUSBUSART
                        _putUSBUSART
 ---------------------------------------------------------------------------------
 (3) _putUSBUSART                                          3     0      3     270
                                              0 BANK1      3     0      3
 ---------------------------------------------------------------------------------
 (3) _getsUSBUSART                                         4     1      3    2292
                                             11 BANK1      4     1      3
               _USBTransferOnePacket
 ---------------------------------------------------------------------------------
 (3) _USART_putcUSART                                      1     1      0      31
                                              0 BANK1      1     1      0
 ---------------------------------------------------------------------------------
 (3) _USART_getcUSART                                      1     1      0      37
                                              0 BANK1      1     1      0
 ---------------------------------------------------------------------------------
 (3) _CDCTxService                                         2     2      0    2189
                                             11 BANK1      2     2      0
               _USBTransferOnePacket
 ---------------------------------------------------------------------------------
 (4) _USBTransferOnePacket                                11     7      4    1988
                                              0 BANK1     11     7      4
 ---------------------------------------------------------------------------------
 Estimated maximum stack depth 4
 ---------------------------------------------------------------------------------
 (Depth) Function   	        Calls       Base Space   Used Autos Params    Refs
 ---------------------------------------------------------------------------------
 (5) _SYS_InterruptLow                                    17    17      0       0
                                              0 BANK0     17    17      0
 ---------------------------------------------------------------------------------
 Estimated maximum stack depth 5
 ---------------------------------------------------------------------------------
 (Depth) Function   	        Calls       Base Space   Used Autos Params    Refs
 ---------------------------------------------------------------------------------
 (6) _SYS_InterruptHigh                                   14    14      0   30810
                                             29 COMRAM    14    14      0
                     _USBDeviceTasks
 ---------------------------------------------------------------------------------
 (7) _USBDeviceTasks                                       1     1      0   30810
                                             28 COMRAM     1     1      0
          _USBCtrlEPAllowStatusStage
                   _USBCtrlEPService
      _USBIncrement1msInternalTimers
                    _USBStallHandler
                         _USBSuspend
                 _USBWakeFromSuspend
    _USER_USB_CALLBACK_EVENT_HANDLER
                    i2_USBDeviceInit
 ---------------------------------------------------------------------------------
 (8) i2_USBDeviceInit                                      1     1      0     610
                                              8 COMRAM     1     1      0
                           i2_memset
 ---------------------------------------------------------------------------------
 (8) _USBWakeFromSuspend                                   0     0      0    3948
    _USER_USB_CALLBACK_EVENT_HANDLER
 ---------------------------------------------------------------------------------
 (8) _USBSuspend                                           0     0      0    3948
    _USER_USB_CALLBACK_EVENT_HANDLER
 ---------------------------------------------------------------------------------
 (8) _USBStallHandler                                      1     1      0       0
                                              0 COMRAM     1     1      0
 ---------------------------------------------------------------------------------
 (8) _USBIncrement1msInternalTimers                        0     0      0       0
 ---------------------------------------------------------------------------------
 (8) _USBCtrlEPService                                     1     1      0   18310
                                             27 COMRAM     1     1      0
                _USBCtrlTrfInHandler
               _USBCtrlTrfOutHandler
             _USBCtrlTrfSetupHandler
                             _memcpy
 ---------------------------------------------------------------------------------
 (9) _memcpy                                              11     5      6     410
                                              0 COMRAM    11     5      6
 ---------------------------------------------------------------------------------
 (9) _USBCtrlTrfSetupHandler                               0     0      0   16899
                 _USBCheckStdRequest
           _USBCtrlEPServiceComplete
    _USER_USB_CALLBACK_EVENT_HANDLER
 ---------------------------------------------------------------------------------
 (10) _USBCtrlEPServiceComplete                            0     0      0      92
            _USBCtrlEPAllowDataStage
          _USBCtrlEPAllowStatusStage
 ---------------------------------------------------------------------------------
 (11) _USBCtrlEPAllowDataStage                             0     0      0      92
                _USBCtrlTrfTxService
 ---------------------------------------------------------------------------------
 (10) _USBCheckStdRequest                                  0     0      0   12859
            _USBStdFeatureReqHandler
                _USBStdGetDscHandler
             _USBStdGetStatusHandler
                _USBStdSetCfgHandler
    _USER_USB_CALLBACK_EVENT_HANDLER
 ---------------------------------------------------------------------------------
 (11) _USBStdSetCfgHandler                                 1     1      0    4446
                                             21 COMRAM     1     1      0
    _USER_USB_CALLBACK_EVENT_HANDLER
                           i2_memset
 ---------------------------------------------------------------------------------
 (9) i2_memset                                             8     2      6     408
                                              0 COMRAM     8     2      6
 ---------------------------------------------------------------------------------
 (11) _USBStdGetStatusHandler                              3     3      0      46
                                              0 COMRAM     3     3      0
 ---------------------------------------------------------------------------------
 (11) _USBStdGetDscHandler                                 2     2      0       0
                                              0 COMRAM     2     2      0
 ---------------------------------------------------------------------------------
 (11) _USBStdFeatureReqHandler                             6     6      0    4419
                                             21 COMRAM     6     6      0
    _USER_USB_CALLBACK_EVENT_HANDLER
 ---------------------------------------------------------------------------------
 (8) _USER_USB_CALLBACK_EVENT_HANDLER                      8     2      6    3948
                                             13 COMRAM     8     2      6
    _APP_DeviceCDCEmulatorInitialize
                 _USBCheckCDCRequest
 ---------------------------------------------------------------------------------
 (9) _USBCheckCDCRequest                                   0     0      0       0
 ---------------------------------------------------------------------------------
 (9) _APP_DeviceCDCEmulatorInitialize                      1     1      0    1256
                                             12 COMRAM     1     1      0
                          _CDCInitEP
                   _USART_Initialize
 ---------------------------------------------------------------------------------
 (10) _CDCInitEP                                           0     0      0    1187
                  _USBEnableEndpoint
             i2_USBTransferOnePacket
 ---------------------------------------------------------------------------------
 (11) i2_USBTransferOnePacket                             11     7      4     454
                                              0 COMRAM    11     7      4
 ---------------------------------------------------------------------------------
 (11) _USBEnableEndpoint                                   4     3      1     733
                                              8 COMRAM     4     3      1
               _USBConfigureEndpoint
 ---------------------------------------------------------------------------------
 (12) _USBConfigureEndpoint                                8     7      1     400
                                              0 COMRAM     8     7      1
 ---------------------------------------------------------------------------------
 (9) _USBCtrlTrfOutHandler                                 0     0      0     500
                _USBCtrlTrfRxService
 ---------------------------------------------------------------------------------
 (10) _USBCtrlTrfRxService                                 2     2      0     500
                                             17 COMRAM     2     2      0
       _USART_mySetLineCodingHandler *
          _USBCtrlEPAllowStatusStage
 ---------------------------------------------------------------------------------
 (11) _USBCtrlEPAllowStatusStage                           0     0      0       0
 ---------------------------------------------------------------------------------
 (9) _USBCtrlTrfInHandler                                  1     1      0     501
                                             17 COMRAM     1     1      0
       _USART_mySetLineCodingHandler *
                _USBCtrlTrfTxService
 ---------------------------------------------------------------------------------
 (12) _USBCtrlTrfTxService                                 1     1      0      92
                                              0 COMRAM     1     1      0
 ---------------------------------------------------------------------------------
 (11) _USART_mySetLineCodingHandler                        4     4      0     386
                                             13 COMRAM     4     4      0
                   _USART_Initialize
                            ___lldiv
 ---------------------------------------------------------------------------------
 (12) ___lldiv                                            13     5      8     340
                                              0 COMRAM    13     5      8
 ---------------------------------------------------------------------------------
 (10) _USART_Initialize                                    1     1      0       1
                                              0 COMRAM     1     1      0
 ---------------------------------------------------------------------------------
 Estimated maximum stack depth 12
 ---------------------------------------------------------------------------------

 Call Graph Graphs:

 _main (ROOT)
   _CDC_Routine
     _APP_DeviceCDCEmulatorTasks
       _CDCTxService
         _USBTransferOnePacket
       _USART_getcUSART
       _USART_putcUSART
       _getsUSBUSART
         _USBTransferOnePacket
       _putUSBUSART
   _SYSTEM_Initialize
   _USBDeviceAttach
   _USBDeviceInit
     _memset

 _SYS_InterruptLow (ROOT)

 _SYS_InterruptHigh (ROOT)
   _USBDeviceTasks
     _USBCtrlEPAllowStatusStage
     _USBCtrlEPService
       _USBCtrlTrfInHandler
         _USART_mySetLineCodingHandler *
           _USART_Initialize
           ___lldiv
         _USBCtrlTrfTxService *
       _USBCtrlTrfOutHandler
         _USBCtrlTrfRxService
           _USART_mySetLineCodingHandler *
             _USART_Initialize
             ___lldiv
           _USBCtrlEPAllowStatusStage *
       _USBCtrlTrfSetupHandler
         _USBCheckStdRequest
           _USBStdFeatureReqHandler
             _USER_USB_CALLBACK_EVENT_HANDLER
               _APP_DeviceCDCEmulatorInitialize
                 _CDCInitEP
                   _USBEnableEndpoint
                     _USBConfigureEndpoint
                   i2_USBTransferOnePacket
                 _USART_Initialize
               _USBCheckCDCRequest
           _USBStdGetDscHandler
           _USBStdGetStatusHandler
           _USBStdSetCfgHandler
             _USER_USB_CALLBACK_EVENT_HANDLER
               _APP_DeviceCDCEmulatorInitialize
                 _CDCInitEP
                   _USBEnableEndpoint
                     _USBConfigureEndpoint
                   i2_USBTransferOnePacket
                 _USART_Initialize
               _USBCheckCDCRequest
             i2_memset
           _USER_USB_CALLBACK_EVENT_HANDLER
             _APP_DeviceCDCEmulatorInitialize
               _CDCInitEP
                 _USBEnableEndpoint
                   _USBConfigureEndpoint
                 i2_USBTransferOnePacket
               _USART_Initialize
             _USBCheckCDCRequest
         _USBCtrlEPServiceComplete
           _USBCtrlEPAllowDataStage
             _USBCtrlTrfTxService
           _USBCtrlEPAllowStatusStage
         _USER_USB_CALLBACK_EVENT_HANDLER
           _APP_DeviceCDCEmulatorInitialize
             _CDCInitEP
               _USBEnableEndpoint
                 _USBConfigureEndpoint
               i2_USBTransferOnePacket
             _USART_Initialize
           _USBCheckCDCRequest
       _memcpy
     _USBIncrement1msInternalTimers
     _USBStallHandler
     _USBSuspend
       _USER_USB_CALLBACK_EVENT_HANDLER
         _APP_DeviceCDCEmulatorInitialize
           _CDCInitEP
             _USBEnableEndpoint
               _USBConfigureEndpoint
             i2_USBTransferOnePacket
           _USART_Initialize
         _USBCheckCDCRequest
     _USBWakeFromSuspend
       _USER_USB_CALLBACK_EVENT_HANDLER
         _APP_DeviceCDCEmulatorInitialize
           _CDCInitEP
             _USBEnableEndpoint
               _USBConfigureEndpoint
             i2_USBTransferOnePacket
           _USART_Initialize
         _USBCheckCDCRequest
     _USER_USB_CALLBACK_EVENT_HANDLER
       _APP_DeviceCDCEmulatorInitialize
         _CDCInitEP
           _USBEnableEndpoint
             _USBConfigureEndpoint
           i2_USBTransferOnePacket
         _USART_Initialize
       _USBCheckCDCRequest
     i2_USBDeviceInit
       i2_memset

 Address spaces:
Name               Size   Autos  Total    Cost      Usage
BIGRAMl            3FF      0       0      23        0.0%
BIGRAMhh           280      0       0      21        0.0%
EEDATA             100      0       0       0        0.0%
BITBANK7           100      0       0      19        0.0%
BANK7              100      0       0      20        0.0%
BITBANK6           100      0       0      17        0.0%
BANK6              100      0       0      18        0.0%
BITBANK3           100      0       0      10        0.0%
BANK3              100      0       0      11        0.0%
BITBANK2           100      0       0       8        0.0%
BANK2              100      0       0       9        0.0%
BITBANK1           100      0       0       6        0.0%
BANK1              100      F      4F       7       30.9%
BIGRAMhl            C0      0       0      22        0.0%
BITBANK4            C0      0       0      12        0.0%
BANK4               C0      0       0      13        0.0%
BITBANK0            A0      0       0       4        0.0%
BANK0               A0     11      93       5       91.9%
BITBANK5            80      0       0      14        0.0%
BANK5               80      0       0      15        0.0%
BITCOMRAM           5E      0       0       0        0.0%
COMRAM              5E     2B      57       1       92.6%
BITSFR               0      0       0     200        0.0%
SFR                  0      0       0     200        0.0%
STACK                0      0       0       2        0.0%
NULL                 0      0       0       0        0.0%
ABS                  0      0     139      16        0.0%
DATA                 0      0     139       3        0.0%
CODE                 0      0       0       0        0.0%


Microchip Technology PIC18 Macro Assembler V1.42 build -159332390 
Symbol Table                                                                                   Mon Sep 04 17:58:46 2017

                              _USB_SD_Ptr 0801                                        l46 2362  
                                      l63 2580                               __CFG_BOR$ON 000000  
                                      bsr 000FE0                             _USBDeviceInit 0B6C  
                             __CFG_BORV$3 000000                        __size_of_CDCInitEP 006A  
                            __CFG_CP0$OFF 000000                              __CFG_CP1$OFF 000000  
                            __CFG_CP2$OFF 000000                              __CFG_CP3$OFF 000000  
    USER_USB_CALLBACK_EVENT_HANDLER@event 003A      USER_USB_CALLBACK_EVENT_HANDLER@pdata 003C  
                __end_of_USART_Initialize 2564                                       l236 0BDA  
             __end_of_USBStdGetDscHandler 1096                                       l602 1242  
                                     l700 2544                                       l296 2496  
                                     l297 2494                                       l662 1A94  
                                     l665 1AC4                                       _BDT 000400  
                                     l597 11F0                              __CFG_CPB$OFF 000000  
                            __CFG_CPD$OFF 000000                                       _UIE 000F69  
                                     _UIR 000F68                                _USBSuspend 24A0  
                    USBStdSetCfgHandler@i 0042                                       prod 000FF3  
                                     tosl 000FFD                                       wreg 000FE8  
                          _USBDeviceTasks 12FA                            _USBDeviceState 0028  
                   ??_USBCtrlTrfRxService 003E                  __size_ofi2_USBDeviceInit 0148  
                          ??_getsUSBUSART 014E                  USBEnableEndpoint@options 0035  
                            __CFG_LVP$OFF 000000                              __CFG_WDT$OFF 000000  
                                    l4110 10E8                                      l4102 10B4  
                                    l4200 1264                                      l4122 117A  
                                    l4210 1290                                      l4220 12BA  
                                    l4140 1C68                USBConfigureEndpoint@handle 0033  
                                    l4230 12F6                                      l4134 1C34  
                                    l4302 2388                                      l4208 1284  
                                    l4144 1C98                                      l4226 12CE  
                                    l4218 12B0                                      l4138 1C60  
                                    l4330 0BBA                                      l4228 12D2  
                                    l4180 11FA                                      l4148 1CCA  
                                    l4164 2514                                      l4404 2572  
                                    l4174 11E4                                      l4238 2548  
                                    l4342 0BE4                                      l4326 0BB0  
                                    l4192 1246                                      l4186 122E  
                                    l4266 1AF0                                      l4354 0C1A  
                                    l4284 1B4A                                      l4276 1B26  
                                    l4292 23F4                                      l4364 0C8A  
                                    l4358 0C24                                      l4288 23E2  
                                    _LATA 000F89                                      _LATB 000F8A  
                                    _LATC 000F8B                     ??_USBCtrlTrfTxService 002D  
                                    _UCFG 000F6F                                      _UEP0 000F70  
                                    _UEP1 000F71                                      _UEIE 000F6B  
                                    _UEIR 000F6A                                      _UCON 000F6D  
                         _CDCDataInHandle 000B    USBStdFeatureReqHandler@current_ep_data 0045  
                                    _pDst 000D                                      _main 2564  
                ??i2_USBTransferOnePacket 0031                                      fsr0h 000FEA  
                                    fsr1h 000FE2                                      fsr2h 000FDA  
                                    fsr0l 000FE9                                      indf1 000FE7  
                             _BaudRateGen 007A                                      indf2 000FDF  
                                    fsr1l 000FE1                                      fsr2l 000FD9  
                         _USBDeviceAttach 2470                                      btemp 0058  
                                    prodh 000FF4                                      prodl 000FF3  
                                    start 00A6                             __CFG_IESO$OFF 000000  
              __end_of_USBCheckStdRequest 1806                           _USART_putcUSART 258A  
                  ??_USBCtrlTrfOutHandler 0040                             __CFG_MCLRE$ON 000000  
                            ___param_bank 000000                 ??_USBStdFeatureReqHandler 0042  
           ?_USART_mySetLineCodingHandler 002D                  ??_USBStdGetStatusHandler 002D  
                          ?_USBDeviceInit 002D                             __CFG_PLLDIV$3 000000  
                          __CFG_CCP2MX$ON 000000                                     ?_main 002D  
       __size_of_USBCtrlEPServiceComplete 00F4                           __end_of___lldiv 207A  
                  __end_of_USBDeviceTasks 1428                 ?_USBCtrlEPServiceComplete 002D  
                                   i2l321 169A                                     i2l236 0D30  
                                   i2l247 1322                                     i2l432 15E8  
                                   i2l257 13AE                                     i2l258 1424  
                                   i2l259 13BE                                     i2l461 08F6  
                                   i2l446 1724                                     i2l551 1A5E  
                                   i2l455 1788                                     i2l480 0AD8  
                                   i2l384 1CDE                                     i2l387 1D6C  
                                   i2l388 1CEE                                     i2l549 1A1A  
                                   i2l389 1CF4                                     i2l397 2358  
                                   _UADDR 000F6E                                     _RCREG 000FAE  
                    __size_of_CDC_Routine 0012                                     _SPBRG 000FAF  
                           __CFG_USBDIV$2 000000                                     _TRISA 000F92  
                                   _TRISB 000F93                                     _TRISC 000F94  
                                   _USTAT 000F6C                                     _TXREG 000FAD  
                           __CFG_PWRT$OFF 000000                             __CFG_WRT0$OFF 000000  
      __size_of_USBCtrlEPAllowStatusStage 00C4                             __CFG_WRT1$OFF 000000  
                           __CFG_WRT2$OFF 000000                             __CFG_WRT3$OFF 000000  
             ?_APP_DeviceCDCEmulatorTasks 002D                            __CFG_EBTR0$OFF 000000  
                          __CFG_FCMEN$OFF 000000                            __CFG_EBTR1$OFF 000000  
                          __CFG_EBTR2$OFF 000000                            __CFG_EBTR3$OFF 000000  
         __end_of_USBCtrlEPAllowDataStage 1ECE                                     _sd000 08C6  
                                   _sd001 0880                                     _sd002 084C  
                           __CFG_WRTB$OFF 000000            ?_USBIncrement1msInternalTimers 002D  
                           __CFG_WRTC$OFF 000000                             __CFG_WRTD$OFF 000000  
                          __CFG_EBTRB$OFF 000000                                i2memset@p1 002D  
                 __end_of_USART_getcUSART 254E                                     pclath 000FFA  
                                   tablat 000FF5                  __end_of_SYS_InterruptLow 00A6  
                                   plusw2 000FDB                         __end_of_CDCInitEP 215E  
                                   status 000FD8                          __end_ofi2_memset 24F8  
                        USART_getcUSART@c 0140                           putUSBUSART@data 0140  
      USART_mySetLineCodingHandler@dwBaud 003A              __size_of_USBStdSetCfgHandler 00E2  
                         __initialization 240C                              __end_of_main 2578  
                   _control_signal_bitmap 0017                 __size_of_USBCtrlEPService 0096  
                                  ??_main 014F                             __activetblptr 000002  
                         ?_USBDeviceTasks 002D                               ?_USBSuspend 002D  
                              _NextUSBOut 0016                              _cdc_mem_type 0018  
                 __end_of_USBDeviceAttach 24A0                                    _ADCON1 000FC1  
                        _CDCDataOutHandle 0086                           getsUSBUSART@len 014D  
                  SYSTEM_Initialize@state 0140                     __size_of_CDCTxService 0130  
                                  i2l1052 2068                                    i2l3000 1B98  
                                  i2l3110 107E                                    i2l3030 1E7E  
                                  i2l3104 106E                                    i2l3202 0AB2  
                                  i2l3106 1076                                    i2l3122 1D14  
                                  i2l3050 1848                                    i2l3034 1E9A  
                                  i2l3220 0B46                                    i2l3212 0AF4  
                                  i2l3204 0ABE                                    i2l3132 1D54  
                                  i2l3060 187C                                    i2l3150 08F2  
                                  i2l3054 1850                                    i2l3330 0E6E  
                                  i2l3218 0B3A                                    i2l3170 09B8  
                                  i2l3402 22E8                                    i2l3410 2308  
                                  i2l3324 0E4A                                    i2l3164 096C  
                                  i2l3084 0F6C                                    i2l3076 18C6  
                                  i2l3342 0ECC                                    i2l3192 0A66  
                                  i2l3176 09DE                                    i2l3096 1014  
                                  i2l3088 0F84                                    i2l3346 0EE6  
                                  i2l3450 2276                                    i2l3442 222E  
                                  i2l3186 0A30                                    i2l3098 101C  
                                  i2l3370 1734                                    i2l3356 0F4A  
                                  i2l3188 0A4C                                    i2l3380 1756  
                                  i2l3372 173A                                    i2l3276 1644  
                                  i2l2806 14E6                                    i2l2902 21D2  
                                  i2l3382 175C                                    i2l3464 1568  
                                  i2l2840 218E                                    i2l3384 1762  
                                  i2l3368 172E                                    i2l3296 16C0  
                                  i2l2922 190A                                    i2l3466 156C  
                                  i2l2850 21AE                                    i2l3394 17A4  
                                  i2l3492 1616                                    i2l3484 15CE  
                                  i2l2764 1FC6                                    i2l2844 2196  
                                  i2l3708 2356                                    i2l3900 1404  
                                  i2l2926 1914                                    i2l3494 161A  
                                  i2l3478 15AE                                    i2l2774 23AC  
                                  i2l3398 17C2                                    i2l3726 1F4E  
                                  i2l3670 2464                                    i2l3750 0D14  
                                  i2l3902 1420                                    i2l3822 131A  
                                  i2l3814 130E                                    i2l2936 1940  
                                  i2l2944 1976                                    i2l4464 21EA  
                                  i2l3728 1F54                                    i2l3672 2466  
                                  i2l2962 201A                                    i2l2946 197E  
                                  i2l2954 19B4                                    i2l2778 23BA  
                                  i2l2794 1468                                    i2l2786 143E  
                                  i2l4466 221A                                    i2l3762 0D3A  
                                  i2l3746 0D0C                                    i2l3842 133E  
                                  i2l2964 2026                                    i2l2884 1A40  
                                  i2l2876 1A08                                    i2l2868 19E8  
                                  i2l2892 1A68                                    i2l2980 24D6  
                                  i2l3860 1376                                    i2l3836 1334  
                                  i2l2974 205A                                    i2l2966 202A  
                                  i2l3774 0D6E                                    i2l2896 21C6  
                                  i2l2984 24E6                                    i2l3784 0DD2  
                                  i2l3880 13B6                                    i2l3848 1362  
                                  i2l2898 21CC                                    i2l3778 0D76  
                                  i2l3874 13A4                                    i2l3866 1380  
                                  i2l3894 13E4                   __end_of_USART_putcUSART 2594  
                           CDCTxService@i 014B                                    _SPBRGH 000FB0  
                i2USBTransferOnePacket@ep 0035                         ??i2_USBDeviceInit 0035  
         __size_ofi2_USBTransferOnePacket 0102                            __CFG_VREGEN$ON 000000  
                       _shortPacketStatus 0027                            __CFG_XINST$OFF 000000  
                         USBDeviceTasks@i 0049               USBStdFeatureReqHandler@pUEP 0043  
                USBTransferOnePacket@data 0141                USBCtrlTrfInHandler@lastDTS 003E  
                         ??_USBDeviceInit 0148                              ?_putUSBUSART 0140  
                          __CFG_STVREN$ON 000000                                 ??___lldiv 0035  
                    __end_of_getsUSBUSART 1CD0                         _USBEnableEndpoint 239C  
         __size_of_USBStdGetStatusHandler 00BA                                    _memcpy 22D6  
                                  _memset 23D8                                    clear_0 2412  
                                  clear_1 241E                                    clear_2 242A  
                      ?_USBEnableEndpoint 0035            ??_USART_mySetLineCodingHandler 003A  
           __size_of_USBTransferOnePacket 0134                              _CDCTxService 11CA  
                            __mediumconst 0000                                    tblptrh 000FF7  
                                  tblptrl 000FF6                                    tblptru 000FF8  
                     ??_USBEnableEndpoint 0036                            _RS232_Out_Data 0100  
                             _CtrlTrfData 000438                          ?_USART_getcUSART 002D  
                    _controlTransferState 0026                         _SYSTEM_Initialize 235C  
                              __accesstop 0060                   __end_of__initialization 2430  
                         __CFG_PBADEN$OFF 000000                        ?_SYSTEM_Initialize 002D  
                           ___rparam_used 000001                  __size_of_USBStallHandler 0042  
                     __size_of_USBSuspend 002C                            __pcstackCOMRAM 002D  
               __end_of_USBEnableEndpoint 23D8                             __end_of_sd000 08CA  
                           __end_of_sd001 08B4                             __end_of_sd002 0880  
                     ??_SYSTEM_Initialize 0140          __size_of_USBCtrlEPAllowDataStage 009E  
           __size_of_USBConfigureEndpoint 0094               __end_of_USBCtrlTrfInHandler 1620  
                  i2_USBTransferOnePacket 1428   __end_of_APP_DeviceCDCEmulatorInitialize 21C4  
__size_of_APP_DeviceCDCEmulatorInitialize 0066         ??_APP_DeviceCDCEmulatorInitialize 0039  
        ?_APP_DeviceCDCEmulatorInitialize 002D           _APP_DeviceCDCEmulatorInitialize 215E  
                       ?_USART_Initialize 002D                                _cdc_notice 00C9  
                               ?i2_memset 002D                                _cdc_rx_len 0088  
                              _cdc_tx_len 0019                        ??_USART_Initialize 002D  
                ??_USBCtrlTrfSetupHandler 0048                   _USBTicksSinceSuspendEnd 001B  
                          _USB_Out_Buffer 0089                          ?_USBDeviceAttach 002D  
               __end_of_SYSTEM_Initialize 239C                    _USBStdGetStatusHandler 1CD0  
                              __pbssBANK0 0060                                __pbssBANK1 0100  
                        ?_USART_putcUSART 002D               __size_of_USBWakeFromSuspend 0032  
                             _pBDTEntryIn 006E          __end_of_USBCtrlEPServiceComplete 1714  
             __size_of_USBCheckCDCRequest 00D0                      USBCtrlTrfRxService@i 003E  
                                 ?_memcpy 002D                                   ?_memset 0140  
                              _device_dsc 08B4                          _USBCtrlEPService 1ECE  
                              _ep_data_in 0081               __end_of_USBCtrlTrfRxService 0F5A  
                      _USBCheckStdRequest 1714                         _configDescriptor1 0809  
                                 _RS232cp 0014                                ??i2_memset 0033  
             __end_of_USBCtrlTrfTxService 19BC                       _USBStdSetCfgHandler 1806  
                     ?_USBCheckStdRequest 002D              __size_of_USBStdGetDscHandler 013C  
                                 _UIEbits 000F69                                   _UIRbits 000F68  
                           _cdc_trf_state 001A                         ?_SYS_InterruptLow 002D  
                      ??_SYS_InterruptLow 00E2                                   _pCDCDst 0005  
                                 _pCDCSrc 0008                     __size_of_getsUSBUSART 00BC  
                                 __Hparam 0000           ??_USBIncrement1msInternalTimers 002D  
                    ?_USBStdSetCfgHandler 002D                                 _CDCInitEP 20F4  
                                 __Lparam 0000                __size_of_USBEnableEndpoint 003C  
                    ??_USBCheckStdRequest 0048             __size_of_USBCtrlTrfOutHandler 005C  
                                 ___lldiv 1FF8                          ??_USBDeviceTasks 0049  
                       ??_USBStallHandler 002D                              __psmallconst 0800  
                           ??_CDC_Routine 014F                      __size_of_putUSBUSART 0020  
                                 __pcinit 240C                        getsUSBUSART@buffer 014B  
                         __size_of_memcpy 0044                           __size_of_memset 0034  
               __end_of_configDescriptor1 084C                                   __ramtop 0800  
                        USART_putcUSART@c 0140                                   __ptext0 2564  
                                 __ptext1 0B6C                                   __ptext2 23D8  
                                 __ptext3 2470                                   __ptext4 235C  
                                 __ptext5 2578                                   __ptext6 1A8C  
                                 __ptext7 24F8                                   __ptext8 1C14  
                                 __ptext9 258A                                   _inPipes 0068  
             _USBDeferOUTDataStagePackets 001C                              ??_USBSuspend 0042  
                            _LastRS232Out 0015                           i2_USBDeviceInit 0CD2  
                        i2USBDeviceInit@i 0035                        __end_of_USB_CD_Ptr 0809  
              __size_of_SYSTEM_Initialize 0040           __size_of_USBCtrlTrfSetupHandler 00A6  
                          __pintcode_body 207A                      end_of_initialization 2430  
                            _getsUSBUSART 1C14                        __end_of_USB_SD_Ptr 0807  
                                 memcpy@d 0033                                   memcpy@n 0031  
                                 memcpy@s 0035                       _pBDTEntryEP0OutNext 000F  
                                 memset@c 0142                                   memset@n 0144  
                                 memset@p 0146                             __Lmediumconst 0000  
                                 int_func 207A                           _USB1msTickCount 0001  
         _dummy_encapsulated_cmd_response 00D3                  ?_USBStdFeatureReqHandler 002D  
                   ??_USBStdSetCfgHandler 0042                           ___lldiv@divisor 0031  
                              ?_CDCInitEP 002D                           ___lldiv@counter 0039  
                      __end_of_USBSuspend 24CC                         USART_Initialize@c 002D  
                 _USBCtrlEPAllowDataStage 1E30                                 _RCSTAbits 000FAB  
                                 postdec2 000FDD                                   postinc0 000FEE  
                                 postinc2 000FDE                  _USBCtrlEPServiceComplete 1620  
              _USBStatusStageEnabledFlag1 001F                _USBStatusStageEnabledFlag2 001E  
                      USBEnableEndpoint@p 0036                       __end_of_CDC_Routine 258A  
                               _TRISCbits 000F94                        _BothEP0OutUOWNsSet 0022  
               USBConfigureEndpoint@EPNum 0032                ?_USBCtrlEPAllowStatusStage 002D  
     USER_USB_CALLBACK_EVENT_HANDLER@size 003E                                 _USTATcopy 002B  
            __end_of_USBTransferOnePacket 11CA                                 _TXSTAbits 000FAC  
                       putUSBUSART@length 0142                    _USBCtrlTrfSetupHandler 1D8A  
                 ?i2_USBTransferOnePacket 002D                     __end_of_USBDeviceInit 0CD2  
   __end_of_USBIncrement1msInternalTimers 2536    __size_of_USBIncrement1msInternalTimers 001E  
           _USBIncrement1msInternalTimers 2518                   __end_ofi2_USBDeviceInit 0E1A  
                               i2memset@c 002F                                 i2memset@n 0031  
                               i2memset@p 0033                            __end_of_memcpy 231A  
                          __end_of_memset 240C                         _USBBusIsSuspended 0024  
                     start_initialization 240C                   ?_USBStdGetStatusHandler 002D  
           USBCtrlTrfRxService@byteToRead 003F                               _cdc_data_rx 000540  
                             _cdc_data_tx 000500                         __size_ofi2_memset 002C  
            __end_of_USBConfigureEndpoint 1FF8           __end_of_USBStdFeatureReqHandler 0B6C  
       __end_of_USBCtrlEPAllowStatusStage 1C14                  __end_of_USBCtrlEPService 1F64  
               __size_of_USART_Initialize 0016      __end_of_USART_mySetLineCodingHandler 22D6  
   __size_of_USART_mySetLineCodingHandler 005A              _USART_mySetLineCodingHandler 227C  
               ??_USBCtrlEPAllowDataStage 002E                               ??_CDCInitEP 0039  
                          USBDeviceInit@i 0148                  __size_of_USART_getcUSART 0018  
                  _pBDTEntryEP0OutCurrent 0011                   USBTransferOnePacket@dir 0140  
                 USBTransferOnePacket@len 0143            __end_ofi2_USBTransferOnePacket 152A  
                     _USBStdGetDscHandler 0F5A                          __CFG_LPT1OSC$OFF 000000  
                                ??_memcpy 0033                                  ??_memset 0146  
                             _CDC_Routine 2578                    _USBActiveConfiguration 002C  
          __end_of_USBStdGetStatusHandler 1D8A                               __pbssCOMRAM 0001  
                           __pcstackBANK0 00E2                             __pcstackBANK1 0140  
            __size_of_USBCtrlTrfInHandler 00F6              ??_APP_DeviceCDCEmulatorTasks 014F  
                    ?_USBStdGetDscHandler 002D                __end_of_USBWakeFromSuspend 2470  
                         _USBStallHandler 231A                          _lastTransmission 0084  
                            _pBDTEntryOut 0074                __end_of_USBCheckCDCRequest 1A8C  
                __size_of_USBDeviceAttach 0030                  __size_of_USART_putcUSART 000A  
                               __pintcode 0008                                  ?___lldiv 002D  
                             __pintcodelo 0018                 __size_of_SYS_InterruptLow 008E  
     __size_of_APP_DeviceCDCEmulatorTasks 00C4                          ?i2_USBDeviceInit 002D  
                    _USBTransferOnePacket 1096                               __smallconst 0800  
            __end_of_USBCtrlTrfOutHandler 227C                     ??_USBStdGetDscHandler 002D  
                             _ep_data_out 007E              __size_of_USBCtrlTrfRxService 0140  
           USBConfigureEndpoint@direction 002D              __size_of_USBCtrlTrfTxService 00D4  
              ??_USBCtrlEPServiceComplete 002E                                  _IPR2bits 000FA2  
                                _PIE2bits 000FA0                                  i2u215_40 0FDA  
                                i2u215_47 0FD0                                  i2u216_40 100E  
                                i2u216_47 1004                                  i2u218_40 1062  
                                i2u218_47 1058                                  i2u270_48 1602  
                                _PIR1bits 000F9E                                  i2u257_48 0F36  
                                _PIR2bits 000FA1                                  i2u196_40 1968  
                                i2u196_47 195E                                  i2u198_40 19A6  
                                i2u198_47 199C                                  _RCONbits 000FD0  
                           ??_putUSBUSART 0143                          __CFG_WDTPS$32768 000000  
                                _UEP0bits 000F70                _USBDeferINDataStagePackets 001D  
             __size_of_USBCheckStdRequest 00F2                                  _UCONbits 000F6D  
        APP_DeviceCDCEmulatorInitialize@i 0039                      _USBConfigureEndpoint 1F64  
                       ??_USART_getcUSART 0140          __size_of_USBStdFeatureReqHandler 02A0  
                   ?_USBTransferOnePacket 0140                         _SYS_InterruptHigh 0008  
                           ?_CDCTxService 002D                              _RemoteWakeup 0025  
                                i2_memset 24CC                        ?_SYS_InterruptHigh 002D  
                      _RS232_Out_Data_Rdy 0013                   __end_of_USBStallHandler 235C  
             ??_USBCtrlEPAllowStatusStage 002D               __end_of_USBStdSetCfgHandler 18E8  
                     ??_SYS_InterruptHigh 004A                          _USART_Initialize 254E  
                      __end_of_device_dsc 08C6                   ?_USBCtrlTrfSetupHandler 002D  
                 USBStdGetStatusHandler@p 002E                                  __Hrparam 0000  
                               memcpy@tmp 0037                                  __Lrparam 0000  
                  USBTransferOnePacket@ep 0148                                  _SetupPkt 000430  
                   ?_USBConfigureEndpoint 002D                         ??_USBDeviceAttach 0140  
                        __size_of___lldiv 0082                 __end_of_SYS_InterruptHigh 20F4  
                       ??_USART_putcUSART 0140                       __end_of_putUSBUSART 2518  
                             _line_coding 00DB                            ??_CDCTxService 014B  
      __end_of_APP_DeviceCDCEmulatorTasks 1B50                _APP_DeviceCDCEmulatorTasks 1A8C  
                 __size_of_USBDeviceTasks 012E                                  __ptext10 2536  
                                __ptext11 11CA                                  __ptext20 2518  
                                __ptext12 1096                                  __ptext21 1ECE  
                                __ptext30 0F5A                                  __ptext22 22D6  
                                __ptext31 08CC                                  __ptext23 1D8A  
                                __ptext15 12FA                                  __ptext40 0E1A  
                                __ptext32 21C4                                  __ptext24 1620  
                                __ptext16 0CD2                                  __ptext41 1B50  
                                __ptext33 19BC                                  __ptext25 1E30  
                                __ptext17 243E                                  __ptext42 152A  
                                __ptext34 215E                                  __ptext26 1714  
                                __ptext18 24A0                                  __ptext43 18E8  
                                __ptext35 20F4                                  __ptext27 1806  
                                __ptext19 231A                                  __ptext44 227C  
                                __ptext36 1428                                  __ptext28 24CC  
                                __ptext45 1FF8                                  __ptext37 239C  
                                __ptext29 1CD0                                  __ptext46 254E  
                                __ptext38 1F64                                  __ptext47 0000  
                                __ptext39 2220            __end_of_USBCtrlTrfSetupHandler 1E30  
                           __size_of_main 0014                         ?_USBCtrlEPService 002D  
                      ??_USBCtrlEPService 0048                       _USBCtrlTrfInHandler 152A  
                                _outPipes 0060                      _USBCtrlTrfOutHandler 2220  
                                int$flags 0058                 _USBCtrlEPAllowStatusStage 1B50  
                        _SYS_InterruptLow 0018                    ??_USBTransferOnePacket 0144  
                            ?_CDC_Routine 002D                     __CFG_CPUDIV$OSC3_PLL4 000000  
               _USBDeferStatusStagePacket 0020                  CDCTxService@byte_to_send 014C  
                              _INTCONbits 000FF2                      ?_USBCtrlTrfInHandler 002D  
                                memcpy@d1 002D                                  memcpy@s1 002F  
           USBCtrlTrfTxService@byteToSend 002D                                  memset@p1 0140  
                        ?_USBStallHandler 002D                  USBStdFeatureReqHandler@p 0046  
                                intlevel1 0000                                  intlevel2 0000  
                  __size_of_USBDeviceInit 0166   __end_of_USER_USB_CALLBACK_EVENT_HANDLER 2220  
__size_of_USER_USB_CALLBACK_EVENT_HANDLER 005C         ??_USER_USB_CALLBACK_EVENT_HANDLER 0040  
        ?_USER_USB_CALLBACK_EVENT_HANDLER 003A           _USER_USB_CALLBACK_EVENT_HANDLER 21C4  
            i2USBTransferOnePacket@handle 0036                          ___lldiv@dividend 002D  
                              _OSCCONbits 000FD3                i2USBTransferOnePacket@data 002E  
                  ??_USBConfigureEndpoint 002E                     ?_USBCtrlTrfOutHandler 002D  
                             _putUSBUSART 24F8                       _USBCtrlTrfRxService 0E1A  
                      _USBWakeFromSuspend 243E                   _USBStdFeatureReqHandler 08CC  
                      _USBCheckCDCRequest 19BC                       _USBCtrlTrfTxService 18E8  
              __size_of_SYS_InterruptHigh 20EC                       ?_USBWakeFromSuspend 002D  
                        ___lldiv@quotient 0035                     ??_USBCtrlTrfInHandler 003E  
                   _USBAlternateInterface 0029                       ?_USBCheckCDCRequest 002D  
               i2USBTransferOnePacket@dir 002D                 i2USBTransferOnePacket@len 0030  
                     USBEnableEndpoint@ep 0038                           _endpoint_number 0023  
                    ?_USBCtrlTrfRxService 002D                             ?_getsUSBUSART 014B  
                      __CFG_FOSC$HSPLL_HS 000000                  ?_USBCtrlEPAllowDataStage 002D  
                    ?_USBCtrlTrfTxService 002D              _USBStatusStageTimeoutCounter 0021  
                    ??_USBWakeFromSuspend 0042                USBTransferOnePacket@handle 0149  
                         _USART_getcUSART 2536                      __end_of_CDCTxService 12FA  
                    ??_USBCheckCDCRequest 002D                                _USB_CD_Ptr 0807  
